
/mnt/f/projects/rvcpu/nexus-am.0/all-test/build/all-test-riscv64-nutshell.elf:     file format elf64-littleriscv


Disassembly of section .text:

0000000080000000 <_start>:
    80000000:	00000413          	li	s0,0
    80000004:	0000f117          	auipc	sp,0xf
    80000008:	ffc10113          	addi	sp,sp,-4 # 8000f000 <buffer>
    8000000c:	56d070ef          	jal	ra,80007d78 <_trm_init>

0000000080000010 <main_conway>:
    80000010:	c6010113          	addi	sp,sp,-928
    80000014:	0c800593          	li	a1,200
    80000018:	0000c517          	auipc	a0,0xc
    8000001c:	0f850513          	addi	a0,a0,248 # 8000c110 <__clzdi2+0x74>
    80000020:	38113c23          	sd	ra,920(sp)
    80000024:	38813823          	sd	s0,912(sp)
    80000028:	38913423          	sd	s1,904(sp)
    8000002c:	39213023          	sd	s2,896(sp)
    80000030:	37413823          	sd	s4,880(sp)
    80000034:	37513423          	sd	s5,872(sp)
    80000038:	37313c23          	sd	s3,888(sp)
    8000003c:	37613023          	sd	s6,864(sp)
    80000040:	35713c23          	sd	s7,856(sp)
    80000044:	35813823          	sd	s8,848(sp)
    80000048:	35913423          	sd	s9,840(sp)
    8000004c:	35a13023          	sd	s10,832(sp)
    80000050:	33b13c23          	sd	s11,824(sp)
    80000054:	5dc090ef          	jal	ra,80009630 <printf_>
    80000058:	7a9070ef          	jal	ra,80008000 <uptime>
    8000005c:	0005059b          	sext.w	a1,a0
    80000060:	00058513          	mv	a0,a1
    80000064:	00b13423          	sd	a1,8(sp)
    80000068:	698090ef          	jal	ra,80009700 <srand>
    8000006c:	00813583          	ld	a1,8(sp)
    80000070:	0000c517          	auipc	a0,0xc
    80000074:	0c850513          	addi	a0,a0,200 # 8000c138 <__clzdi2+0x9c>
    80000078:	01010493          	addi	s1,sp,16
    8000007c:	5b4090ef          	jal	ra,80009630 <printf_>
    80000080:	1a010413          	addi	s0,sp,416
    80000084:	00048913          	mv	s2,s1
    80000088:	00300a13          	li	s4,3
    8000008c:	02800a93          	li	s5,40
    80000090:	00000993          	li	s3,0
    80000094:	638090ef          	jal	ra,800096cc <rand>
    80000098:	0345653b          	remw	a0,a0,s4
    8000009c:	013907b3          	add	a5,s2,s3
    800000a0:	00198993          	addi	s3,s3,1
    800000a4:	00153513          	seqz	a0,a0
    800000a8:	00a78023          	sb	a0,0(a5)
    800000ac:	ff5994e3          	bne	s3,s5,80000094 <main_conway+0x84>
    800000b0:	02890913          	addi	s2,s2,40
    800000b4:	fc891ee3          	bne	s2,s0,80000090 <main_conway+0x80>
    800000b8:	00000913          	li	s2,0
    800000bc:	00200993          	li	s3,2
    800000c0:	fff00a13          	li	s4,-1
    800000c4:	02800a93          	li	s5,40
    800000c8:	00090593          	mv	a1,s2
    800000cc:	0c800613          	li	a2,200
    800000d0:	0000c517          	auipc	a0,0xc
    800000d4:	07850513          	addi	a0,a0,120 # 8000c148 <__clzdi2+0xac>
    800000d8:	558090ef          	jal	ra,80009630 <printf_>
    800000dc:	fe810313          	addi	t1,sp,-24
    800000e0:	00200593          	li	a1,2
    800000e4:	fff00e13          	li	t3,-1
    800000e8:	00000513          	li	a0,0
    800000ec:	00900393          	li	t2,9
    800000f0:	00300f93          	li	t6,3
    800000f4:	00100b13          	li	s6,1
    800000f8:	00c00293          	li	t0,12
    800000fc:	035507b3          	mul	a5,a0,s5
    80000100:	fff00e93          	li	t4,-1
    80000104:	00000713          	li	a4,0
    80000108:	000e0c1b          	sext.w	s8,t3
    8000010c:	0005809b          	sext.w	ra,a1
    80000110:	00050b9b          	sext.w	s7,a0
    80000114:	000c0613          	mv	a2,s8
    80000118:	00030f13          	mv	t5,t1
    8000011c:	00000693          	li	a3,0
    80000120:	00270c9b          	addiw	s9,a4,2
    80000124:	04160663          	beq	a2,ra,80000170 <main_conway+0x160>
    80000128:	000e8813          	mv	a6,t4
    8000012c:	00060d1b          	sext.w	s10,a2
    80000130:	0008089b          	sext.w	a7,a6
    80000134:	031c8863          	beq	s9,a7,80000164 <main_conway+0x154>
    80000138:	03a3e263          	bltu	t2,s10,8000015c <main_conway+0x14c>
    8000013c:	03488063          	beq	a7,s4,8000015c <main_conway+0x14c>
    80000140:	01588e63          	beq	a7,s5,8000015c <main_conway+0x14c>
    80000144:	010f0db3          	add	s11,t5,a6
    80000148:	000dcd83          	lbu	s11,0(s11)
    8000014c:	000d8863          	beqz	s11,8000015c <main_conway+0x14c>
    80000150:	01761463          	bne	a2,s7,80000158 <main_conway+0x148>
    80000154:	00e88463          	beq	a7,a4,8000015c <main_conway+0x14c>
    80000158:	0016869b          	addiw	a3,a3,1
    8000015c:	00180813          	addi	a6,a6,1
    80000160:	fd1ff06f          	j	80000130 <main_conway+0x120>
    80000164:	0016061b          	addiw	a2,a2,1
    80000168:	028f0f13          	addi	t5,t5,40
    8000016c:	fb9ff06f          	j	80000124 <main_conway+0x114>
    80000170:	00dfd863          	bge	t6,a3,80000180 <main_conway+0x170>
    80000174:	00f406b3          	add	a3,s0,a5
    80000178:	00068023          	sb	zero,0(a3)
    8000017c:	0280006f          	j	800001a4 <main_conway+0x194>
    80000180:	01f68e63          	beq	a3,t6,8000019c <main_conway+0x18c>
    80000184:	ff3698e3          	bne	a3,s3,80000174 <main_conway+0x164>
    80000188:	00f48633          	add	a2,s1,a5
    8000018c:	00064603          	lbu	a2,0(a2)
    80000190:	00f406b3          	add	a3,s0,a5
    80000194:	00c68023          	sb	a2,0(a3)
    80000198:	00c0006f          	j	800001a4 <main_conway+0x194>
    8000019c:	00f406b3          	add	a3,s0,a5
    800001a0:	01668023          	sb	s6,0(a3)
    800001a4:	0017071b          	addiw	a4,a4,1
    800001a8:	001e8e93          	addi	t4,t4,1
    800001ac:	00178793          	addi	a5,a5,1
    800001b0:	f75712e3          	bne	a4,s5,80000114 <main_conway+0x104>
    800001b4:	0015859b          	addiw	a1,a1,1
    800001b8:	00150513          	addi	a0,a0,1
    800001bc:	001e0e1b          	addiw	t3,t3,1
    800001c0:	02830313          	addi	t1,t1,40
    800001c4:	f2559ce3          	bne	a1,t0,800000fc <main_conway+0xec>
    800001c8:	19000613          	li	a2,400
    800001cc:	00040593          	mv	a1,s0
    800001d0:	00048513          	mv	a0,s1
    800001d4:	580090ef          	jal	ra,80009754 <memcpy>
    800001d8:	0019091b          	addiw	s2,s2,1
    800001dc:	0c800793          	li	a5,200
    800001e0:	eef914e3          	bne	s2,a5,800000c8 <main_conway+0xb8>
    800001e4:	0000ca97          	auipc	s5,0xc
    800001e8:	f1ca8a93          	addi	s5,s5,-228 # 8000c100 <__clzdi2+0x64>
    800001ec:	0000cb17          	auipc	s6,0xc
    800001f0:	f1cb0b13          	addi	s6,s6,-228 # 8000c108 <__clzdi2+0x6c>
    800001f4:	02800a13          	li	s4,40
    800001f8:	0000d997          	auipc	s3,0xd
    800001fc:	fb898993          	addi	s3,s3,-72 # 8000d1b0 <_ZZ3numiiiiE1t+0x280>
    80000200:	00000913          	li	s2,0
    80000204:	012487b3          	add	a5,s1,s2
    80000208:	0007c783          	lbu	a5,0(a5)
    8000020c:	000a8513          	mv	a0,s5
    80000210:	00079463          	bnez	a5,80000218 <main_conway+0x208>
    80000214:	000b0513          	mv	a0,s6
    80000218:	00190913          	addi	s2,s2,1
    8000021c:	414090ef          	jal	ra,80009630 <printf_>
    80000220:	ff4912e3          	bne	s2,s4,80000204 <main_conway+0x1f4>
    80000224:	00098513          	mv	a0,s3
    80000228:	02848493          	addi	s1,s1,40
    8000022c:	404090ef          	jal	ra,80009630 <printf_>
    80000230:	fc8498e3          	bne	s1,s0,80000200 <main_conway+0x1f0>
    80000234:	39813083          	ld	ra,920(sp)
    80000238:	39013403          	ld	s0,912(sp)
    8000023c:	38813483          	ld	s1,904(sp)
    80000240:	38013903          	ld	s2,896(sp)
    80000244:	37813983          	ld	s3,888(sp)
    80000248:	37013a03          	ld	s4,880(sp)
    8000024c:	36813a83          	ld	s5,872(sp)
    80000250:	36013b03          	ld	s6,864(sp)
    80000254:	35813b83          	ld	s7,856(sp)
    80000258:	35013c03          	ld	s8,848(sp)
    8000025c:	34813c83          	ld	s9,840(sp)
    80000260:	34013d03          	ld	s10,832(sp)
    80000264:	33813d83          	ld	s11,824(sp)
    80000268:	00000513          	li	a0,0
    8000026c:	3a010113          	addi	sp,sp,928
    80000270:	00008067          	ret

0000000080000274 <cmp_idx>:
    80000274:	02061a63          	bnez	a2,800002a8 <cmp_idx+0x34>
    80000278:	00051783          	lh	a5,0(a0)
    8000027c:	f007f713          	andi	a4,a5,-256
    80000280:	0087d793          	srli	a5,a5,0x8
    80000284:	0ff7f793          	andi	a5,a5,255
    80000288:	00f767b3          	or	a5,a4,a5
    8000028c:	00f51023          	sh	a5,0(a0)
    80000290:	00059783          	lh	a5,0(a1)
    80000294:	f007f713          	andi	a4,a5,-256
    80000298:	0087d793          	srli	a5,a5,0x8
    8000029c:	0ff7f793          	andi	a5,a5,255
    800002a0:	00f767b3          	or	a5,a4,a5
    800002a4:	00f59023          	sh	a5,0(a1)
    800002a8:	00251503          	lh	a0,2(a0)
    800002ac:	00259783          	lh	a5,2(a1)
    800002b0:	40f5053b          	subw	a0,a0,a5
    800002b4:	00008067          	ret

00000000800002b8 <calc_func>:
    800002b8:	fd010113          	addi	sp,sp,-48
    800002bc:	00913c23          	sd	s1,24(sp)
    800002c0:	00051483          	lh	s1,0(a0)
    800002c4:	02113423          	sd	ra,40(sp)
    800002c8:	02813023          	sd	s0,32(sp)
    800002cc:	4074d79b          	sraiw	a5,s1,0x7
    800002d0:	01213823          	sd	s2,16(sp)
    800002d4:	01313423          	sd	s3,8(sp)
    800002d8:	0017f793          	andi	a5,a5,1
    800002dc:	02078263          	beqz	a5,80000300 <calc_func+0x48>
    800002e0:	07f4f513          	andi	a0,s1,127
    800002e4:	02813083          	ld	ra,40(sp)
    800002e8:	02013403          	ld	s0,32(sp)
    800002ec:	01813483          	ld	s1,24(sp)
    800002f0:	01013903          	ld	s2,16(sp)
    800002f4:	00813983          	ld	s3,8(sp)
    800002f8:	03010113          	addi	sp,sp,48
    800002fc:	00008067          	ret
    80000300:	00058413          	mv	s0,a1
    80000304:	4034d59b          	sraiw	a1,s1,0x3
    80000308:	00f5f793          	andi	a5,a1,15
    8000030c:	00479593          	slli	a1,a5,0x4
    80000310:	0074f713          	andi	a4,s1,7
    80000314:	00f5e5b3          	or	a1,a1,a5
    80000318:	00050993          	mv	s3,a0
    8000031c:	06045783          	lhu	a5,96(s0)
    80000320:	02070a63          	beqz	a4,80000354 <calc_func+0x9c>
    80000324:	00100693          	li	a3,1
    80000328:	00048913          	mv	s2,s1
    8000032c:	06d71263          	bne	a4,a3,80000390 <calc_func+0xd8>
    80000330:	00078613          	mv	a2,a5
    80000334:	04040513          	addi	a0,s0,64
    80000338:	338010ef          	jal	ra,80001670 <core_bench_matrix>
    8000033c:	06445783          	lhu	a5,100(s0)
    80000340:	0105191b          	slliw	s2,a0,0x10
    80000344:	4109591b          	sraiw	s2,s2,0x10
    80000348:	04079463          	bnez	a5,80000390 <calc_func+0xd8>
    8000034c:	06a41223          	sh	a0,100(s0)
    80000350:	0400006f          	j	80000390 <calc_func+0xd8>
    80000354:	02200693          	li	a3,34
    80000358:	00058713          	mv	a4,a1
    8000035c:	00d5d463          	bge	a1,a3,80000364 <calc_func+0xac>
    80000360:	02200713          	li	a4,34
    80000364:	00241683          	lh	a3,2(s0)
    80000368:	00041603          	lh	a2,0(s0)
    8000036c:	02043583          	ld	a1,32(s0)
    80000370:	02842503          	lw	a0,40(s0)
    80000374:	0ff77713          	andi	a4,a4,255
    80000378:	704010ef          	jal	ra,80001a7c <core_bench_state>
    8000037c:	06645783          	lhu	a5,102(s0)
    80000380:	0105191b          	slliw	s2,a0,0x10
    80000384:	4109591b          	sraiw	s2,s2,0x10
    80000388:	00079463          	bnez	a5,80000390 <calc_func+0xd8>
    8000038c:	06a41323          	sh	a0,102(s0)
    80000390:	06045583          	lhu	a1,96(s0)
    80000394:	03091513          	slli	a0,s2,0x30
    80000398:	03055513          	srli	a0,a0,0x30
    8000039c:	149010ef          	jal	ra,80001ce4 <crcu16>
    800003a0:	06a41023          	sh	a0,96(s0)
    800003a4:	f004f493          	andi	s1,s1,-256
    800003a8:	07f97513          	andi	a0,s2,127
    800003ac:	009564b3          	or	s1,a0,s1
    800003b0:	0804e493          	ori	s1,s1,128
    800003b4:	00999023          	sh	s1,0(s3)
    800003b8:	f2dff06f          	j	800002e4 <calc_func+0x2c>

00000000800003bc <cmp_complex>:
    800003bc:	fd010113          	addi	sp,sp,-48
    800003c0:	00913c23          	sd	s1,24(sp)
    800003c4:	00058493          	mv	s1,a1
    800003c8:	00060593          	mv	a1,a2
    800003cc:	02113423          	sd	ra,40(sp)
    800003d0:	02813023          	sd	s0,32(sp)
    800003d4:	00c13423          	sd	a2,8(sp)
    800003d8:	ee1ff0ef          	jal	ra,800002b8 <calc_func>
    800003dc:	00813583          	ld	a1,8(sp)
    800003e0:	00050413          	mv	s0,a0
    800003e4:	00048513          	mv	a0,s1
    800003e8:	ed1ff0ef          	jal	ra,800002b8 <calc_func>
    800003ec:	02813083          	ld	ra,40(sp)
    800003f0:	40a4053b          	subw	a0,s0,a0
    800003f4:	02013403          	ld	s0,32(sp)
    800003f8:	01813483          	ld	s1,24(sp)
    800003fc:	03010113          	addi	sp,sp,48
    80000400:	00008067          	ret

0000000080000404 <copy_info>:
    80000404:	00059783          	lh	a5,0(a1)
    80000408:	00f51023          	sh	a5,0(a0)
    8000040c:	00259783          	lh	a5,2(a1)
    80000410:	00f51123          	sh	a5,2(a0)
    80000414:	00008067          	ret

0000000080000418 <core_list_insert_new>:
    80000418:	00050813          	mv	a6,a0
    8000041c:	00063503          	ld	a0,0(a2)
    80000420:	01050893          	addi	a7,a0,16
    80000424:	04e8f463          	bgeu	a7,a4,8000046c <core_list_insert_new+0x54>
    80000428:	0006b703          	ld	a4,0(a3)
    8000042c:	00470313          	addi	t1,a4,4
    80000430:	02f37e63          	bgeu	t1,a5,8000046c <core_list_insert_new+0x54>
    80000434:	01163023          	sd	a7,0(a2)
    80000438:	00083783          	ld	a5,0(a6)
    8000043c:	00f53023          	sd	a5,0(a0)
    80000440:	00a83023          	sd	a0,0(a6)
    80000444:	00e53423          	sd	a4,8(a0)
    80000448:	0006b783          	ld	a5,0(a3)
    8000044c:	00059703          	lh	a4,0(a1)
    80000450:	00478793          	addi	a5,a5,4
    80000454:	00f6b023          	sd	a5,0(a3)
    80000458:	00853783          	ld	a5,8(a0)
    8000045c:	00e79023          	sh	a4,0(a5)
    80000460:	00259703          	lh	a4,2(a1)
    80000464:	00e79123          	sh	a4,2(a5)
    80000468:	00008067          	ret
    8000046c:	00000513          	li	a0,0
    80000470:	00008067          	ret

0000000080000474 <core_list_remove>:
    80000474:	00050793          	mv	a5,a0
    80000478:	00053503          	ld	a0,0(a0)
    8000047c:	0087b703          	ld	a4,8(a5)
    80000480:	00853683          	ld	a3,8(a0)
    80000484:	00d7b423          	sd	a3,8(a5)
    80000488:	00e53423          	sd	a4,8(a0)
    8000048c:	00053703          	ld	a4,0(a0)
    80000490:	00e7b023          	sd	a4,0(a5)
    80000494:	00053023          	sd	zero,0(a0)
    80000498:	00008067          	ret

000000008000049c <core_list_undo_remove>:
    8000049c:	0085b683          	ld	a3,8(a1)
    800004a0:	00853703          	ld	a4,8(a0)
    800004a4:	00d53423          	sd	a3,8(a0)
    800004a8:	00e5b423          	sd	a4,8(a1)
    800004ac:	0005b703          	ld	a4,0(a1)
    800004b0:	00e53023          	sd	a4,0(a0)
    800004b4:	00a5b023          	sd	a0,0(a1)
    800004b8:	00008067          	ret

00000000800004bc <core_list_find>:
    800004bc:	00259783          	lh	a5,2(a1)
    800004c0:	0207d463          	bgez	a5,800004e8 <core_list_find+0x2c>
    800004c4:	02050a63          	beqz	a0,800004f8 <core_list_find+0x3c>
    800004c8:	00853783          	ld	a5,8(a0)
    800004cc:	0007c703          	lbu	a4,0(a5)
    800004d0:	00059783          	lh	a5,0(a1)
    800004d4:	00f71463          	bne	a4,a5,800004dc <core_list_find+0x20>
    800004d8:	00008067          	ret
    800004dc:	00053503          	ld	a0,0(a0)
    800004e0:	fe5ff06f          	j	800004c4 <core_list_find+0x8>
    800004e4:	00053503          	ld	a0,0(a0)
    800004e8:	00050863          	beqz	a0,800004f8 <core_list_find+0x3c>
    800004ec:	00853703          	ld	a4,8(a0)
    800004f0:	00271703          	lh	a4,2(a4)
    800004f4:	fef718e3          	bne	a4,a5,800004e4 <core_list_find+0x28>
    800004f8:	00008067          	ret

00000000800004fc <core_list_reverse>:
    800004fc:	00050793          	mv	a5,a0
    80000500:	00000513          	li	a0,0
    80000504:	00079463          	bnez	a5,8000050c <core_list_reverse+0x10>
    80000508:	00008067          	ret
    8000050c:	0007b703          	ld	a4,0(a5)
    80000510:	00a7b023          	sd	a0,0(a5)
    80000514:	00078513          	mv	a0,a5
    80000518:	00070793          	mv	a5,a4
    8000051c:	fe9ff06f          	j	80000504 <core_list_reverse+0x8>

0000000080000520 <core_list_mergesort>:
    80000520:	fa010113          	addi	sp,sp,-96
    80000524:	03313c23          	sd	s3,56(sp)
    80000528:	03413823          	sd	s4,48(sp)
    8000052c:	01713c23          	sd	s7,24(sp)
    80000530:	01813823          	sd	s8,16(sp)
    80000534:	01a13023          	sd	s10,0(sp)
    80000538:	04113c23          	sd	ra,88(sp)
    8000053c:	04813823          	sd	s0,80(sp)
    80000540:	04913423          	sd	s1,72(sp)
    80000544:	05213023          	sd	s2,64(sp)
    80000548:	03513423          	sd	s5,40(sp)
    8000054c:	03613023          	sd	s6,32(sp)
    80000550:	01913423          	sd	s9,8(sp)
    80000554:	00058b93          	mv	s7,a1
    80000558:	00060c13          	mv	s8,a2
    8000055c:	00050993          	mv	s3,a0
    80000560:	00100a13          	li	s4,1
    80000564:	00100d13          	li	s10,1
    80000568:	00098493          	mv	s1,s3
    8000056c:	00000c93          	li	s9,0
    80000570:	00000b13          	li	s6,0
    80000574:	00000993          	li	s3,0
    80000578:	00049a63          	bnez	s1,8000058c <core_list_mergesort+0x6c>
    8000057c:	000b3023          	sd	zero,0(s6)
    80000580:	099d5a63          	bge	s10,s9,80000614 <core_list_mergesort+0xf4>
    80000584:	001a1a1b          	slliw	s4,s4,0x1
    80000588:	fe1ff06f          	j	80000568 <core_list_mergesort+0x48>
    8000058c:	001c8c9b          	addiw	s9,s9,1
    80000590:	00048413          	mv	s0,s1
    80000594:	00000913          	li	s2,0
    80000598:	00043403          	ld	s0,0(s0)
    8000059c:	0019091b          	addiw	s2,s2,1
    800005a0:	00041e63          	bnez	s0,800005bc <core_list_mergesort+0x9c>
    800005a4:	000a0a93          	mv	s5,s4
    800005a8:	00091e63          	bnez	s2,800005c4 <core_list_mergesort+0xa4>
    800005ac:	000a8463          	beqz	s5,800005b4 <core_list_mergesort+0x94>
    800005b0:	04041663          	bnez	s0,800005fc <core_list_mergesort+0xdc>
    800005b4:	00040493          	mv	s1,s0
    800005b8:	fc1ff06f          	j	80000578 <core_list_mergesort+0x58>
    800005bc:	fd2a1ee3          	bne	s4,s2,80000598 <core_list_mergesort+0x78>
    800005c0:	fe5ff06f          	j	800005a4 <core_list_mergesort+0x84>
    800005c4:	000a8463          	beqz	s5,800005cc <core_list_mergesort+0xac>
    800005c8:	02041063          	bnez	s0,800005e8 <core_list_mergesort+0xc8>
    800005cc:	00048793          	mv	a5,s1
    800005d0:	0004b483          	ld	s1,0(s1)
    800005d4:	fff9091b          	addiw	s2,s2,-1
    800005d8:	020b0a63          	beqz	s6,8000060c <core_list_mergesort+0xec>
    800005dc:	00fb3023          	sd	a5,0(s6)
    800005e0:	00078b13          	mv	s6,a5
    800005e4:	fc5ff06f          	j	800005a8 <core_list_mergesort+0x88>
    800005e8:	00843583          	ld	a1,8(s0)
    800005ec:	0084b503          	ld	a0,8(s1)
    800005f0:	000c0613          	mv	a2,s8
    800005f4:	000b80e7          	jalr	s7
    800005f8:	fca05ae3          	blez	a0,800005cc <core_list_mergesort+0xac>
    800005fc:	00040793          	mv	a5,s0
    80000600:	fffa8a9b          	addiw	s5,s5,-1
    80000604:	00043403          	ld	s0,0(s0)
    80000608:	fd1ff06f          	j	800005d8 <core_list_mergesort+0xb8>
    8000060c:	00078993          	mv	s3,a5
    80000610:	fd1ff06f          	j	800005e0 <core_list_mergesort+0xc0>
    80000614:	05813083          	ld	ra,88(sp)
    80000618:	05013403          	ld	s0,80(sp)
    8000061c:	04813483          	ld	s1,72(sp)
    80000620:	04013903          	ld	s2,64(sp)
    80000624:	03013a03          	ld	s4,48(sp)
    80000628:	02813a83          	ld	s5,40(sp)
    8000062c:	02013b03          	ld	s6,32(sp)
    80000630:	01813b83          	ld	s7,24(sp)
    80000634:	01013c03          	ld	s8,16(sp)
    80000638:	00813c83          	ld	s9,8(sp)
    8000063c:	00013d03          	ld	s10,0(sp)
    80000640:	00098513          	mv	a0,s3
    80000644:	03813983          	ld	s3,56(sp)
    80000648:	06010113          	addi	sp,sp,96
    8000064c:	00008067          	ret

0000000080000650 <core_bench_list>:
    80000650:	f9010113          	addi	sp,sp,-112
    80000654:	05213823          	sd	s2,80(sp)
    80000658:	03713423          	sd	s7,40(sp)
    8000065c:	03853903          	ld	s2,56(a0)
    80000660:	00451b83          	lh	s7,4(a0)
    80000664:	04913c23          	sd	s1,88(sp)
    80000668:	05413023          	sd	s4,64(sp)
    8000066c:	03513c23          	sd	s5,56(sp)
    80000670:	03613823          	sd	s6,48(sp)
    80000674:	03813023          	sd	s8,32(sp)
    80000678:	06113423          	sd	ra,104(sp)
    8000067c:	06813023          	sd	s0,96(sp)
    80000680:	05313423          	sd	s3,72(sp)
    80000684:	00050613          	mv	a2,a0
    80000688:	00058a13          	mv	s4,a1
    8000068c:	00011c23          	sh	zero,24(sp)
    80000690:	00b11d23          	sh	a1,26(sp)
    80000694:	00000c13          	li	s8,0
    80000698:	00000b13          	li	s6,0
    8000069c:	00000493          	li	s1,0
    800006a0:	00000a93          	li	s5,0
    800006a4:	0d7c4663          	blt	s8,s7,80000770 <core_bench_list+0x120>
    800006a8:	0024941b          	slliw	s0,s1,0x2
    800006ac:	4164043b          	subw	s0,s0,s6
    800006b0:	0154043b          	addw	s0,s0,s5
    800006b4:	03041413          	slli	s0,s0,0x30
    800006b8:	03045413          	srli	s0,s0,0x30
    800006bc:	01405c63          	blez	s4,800006d4 <core_bench_list+0x84>
    800006c0:	00090513          	mv	a0,s2
    800006c4:	00000597          	auipc	a1,0x0
    800006c8:	cf858593          	addi	a1,a1,-776 # 800003bc <cmp_complex>
    800006cc:	e55ff0ef          	jal	ra,80000520 <core_list_mergesort>
    800006d0:	00050913          	mv	s2,a0
    800006d4:	00093503          	ld	a0,0(s2)
    800006d8:	d9dff0ef          	jal	ra,80000474 <core_list_remove>
    800006dc:	00050993          	mv	s3,a0
    800006e0:	01810593          	addi	a1,sp,24
    800006e4:	00090513          	mv	a0,s2
    800006e8:	dd5ff0ef          	jal	ra,800004bc <core_list_find>
    800006ec:	00050493          	mv	s1,a0
    800006f0:	14051463          	bnez	a0,80000838 <core_bench_list+0x1e8>
    800006f4:	00093483          	ld	s1,0(s2)
    800006f8:	14049063          	bnez	s1,80000838 <core_bench_list+0x1e8>
    800006fc:	00093783          	ld	a5,0(s2)
    80000700:	0089b703          	ld	a4,8(s3)
    80000704:	00090513          	mv	a0,s2
    80000708:	0087b683          	ld	a3,8(a5)
    8000070c:	00000613          	li	a2,0
    80000710:	00000597          	auipc	a1,0x0
    80000714:	b6458593          	addi	a1,a1,-1180 # 80000274 <cmp_idx>
    80000718:	00d9b423          	sd	a3,8(s3)
    8000071c:	00e7b423          	sd	a4,8(a5)
    80000720:	0007b703          	ld	a4,0(a5)
    80000724:	00e9b023          	sd	a4,0(s3)
    80000728:	0137b023          	sd	s3,0(a5)
    8000072c:	df5ff0ef          	jal	ra,80000520 <core_list_mergesort>
    80000730:	00053903          	ld	s2,0(a0)
    80000734:	00050493          	mv	s1,a0
    80000738:	10091e63          	bnez	s2,80000854 <core_bench_list+0x204>
    8000073c:	06813083          	ld	ra,104(sp)
    80000740:	00040513          	mv	a0,s0
    80000744:	06013403          	ld	s0,96(sp)
    80000748:	05813483          	ld	s1,88(sp)
    8000074c:	05013903          	ld	s2,80(sp)
    80000750:	04813983          	ld	s3,72(sp)
    80000754:	04013a03          	ld	s4,64(sp)
    80000758:	03813a83          	ld	s5,56(sp)
    8000075c:	03013b03          	ld	s6,48(sp)
    80000760:	02813b83          	ld	s7,40(sp)
    80000764:	02013c03          	ld	s8,32(sp)
    80000768:	07010113          	addi	sp,sp,112
    8000076c:	00008067          	ret
    80000770:	0ffc7793          	andi	a5,s8,255
    80000774:	01810593          	addi	a1,sp,24
    80000778:	00090513          	mv	a0,s2
    8000077c:	00c13423          	sd	a2,8(sp)
    80000780:	00f11c23          	sh	a5,24(sp)
    80000784:	d39ff0ef          	jal	ra,800004bc <core_list_find>
    80000788:	00050993          	mv	s3,a0
    8000078c:	00090513          	mv	a0,s2
    80000790:	d6dff0ef          	jal	ra,800004fc <core_list_reverse>
    80000794:	00813603          	ld	a2,8(sp)
    80000798:	00050913          	mv	s2,a0
    8000079c:	04099663          	bnez	s3,800007e8 <core_bench_list+0x198>
    800007a0:	00053783          	ld	a5,0(a0)
    800007a4:	001b041b          	addiw	s0,s6,1
    800007a8:	03041b13          	slli	s6,s0,0x30
    800007ac:	0087b783          	ld	a5,8(a5)
    800007b0:	030b5b13          	srli	s6,s6,0x30
    800007b4:	00178783          	lb	a5,1(a5)
    800007b8:	0017f793          	andi	a5,a5,1
    800007bc:	015787bb          	addw	a5,a5,s5
    800007c0:	03079a93          	slli	s5,a5,0x30
    800007c4:	030ada93          	srli	s5,s5,0x30
    800007c8:	01a11703          	lh	a4,26(sp)
    800007cc:	00074663          	bltz	a4,800007d8 <core_bench_list+0x188>
    800007d0:	0017071b          	addiw	a4,a4,1
    800007d4:	00e11d23          	sh	a4,26(sp)
    800007d8:	001c071b          	addiw	a4,s8,1
    800007dc:	01071c1b          	slliw	s8,a4,0x10
    800007e0:	410c5c1b          	sraiw	s8,s8,0x10
    800007e4:	ec1ff06f          	j	800006a4 <core_bench_list+0x54>
    800007e8:	0089b683          	ld	a3,8(s3)
    800007ec:	0014849b          	addiw	s1,s1,1
    800007f0:	03049493          	slli	s1,s1,0x30
    800007f4:	00069783          	lh	a5,0(a3)
    800007f8:	0304d493          	srli	s1,s1,0x30
    800007fc:	0017f693          	andi	a3,a5,1
    80000800:	00068c63          	beqz	a3,80000818 <core_bench_list+0x1c8>
    80000804:	4097d79b          	sraiw	a5,a5,0x9
    80000808:	0017f793          	andi	a5,a5,1
    8000080c:	015787bb          	addw	a5,a5,s5
    80000810:	03079a93          	slli	s5,a5,0x30
    80000814:	030ada93          	srli	s5,s5,0x30
    80000818:	0009b703          	ld	a4,0(s3)
    8000081c:	fa0706e3          	beqz	a4,800007c8 <core_bench_list+0x178>
    80000820:	00073683          	ld	a3,0(a4)
    80000824:	00d9b023          	sd	a3,0(s3)
    80000828:	00093683          	ld	a3,0(s2)
    8000082c:	00d73023          	sd	a3,0(a4)
    80000830:	00e93023          	sd	a4,0(s2)
    80000834:	f95ff06f          	j	800007c8 <core_bench_list+0x178>
    80000838:	00893783          	ld	a5,8(s2)
    8000083c:	00040593          	mv	a1,s0
    80000840:	00079503          	lh	a0,0(a5)
    80000844:	504010ef          	jal	ra,80001d48 <crc16>
    80000848:	00050413          	mv	s0,a0
    8000084c:	0004b483          	ld	s1,0(s1)
    80000850:	ea9ff06f          	j	800006f8 <core_bench_list+0xa8>
    80000854:	0084b783          	ld	a5,8(s1)
    80000858:	00040593          	mv	a1,s0
    8000085c:	00079503          	lh	a0,0(a5)
    80000860:	4e8010ef          	jal	ra,80001d48 <crc16>
    80000864:	00050413          	mv	s0,a0
    80000868:	00093903          	ld	s2,0(s2)
    8000086c:	ecdff06f          	j	80000738 <core_bench_list+0xe8>

0000000080000870 <core_list_init>:
    80000870:	fa010113          	addi	sp,sp,-96
    80000874:	04913423          	sd	s1,72(sp)
    80000878:	01400493          	li	s1,20
    8000087c:	0295553b          	divuw	a0,a0,s1
    80000880:	03413823          	sd	s4,48(sp)
    80000884:	03313c23          	sd	s3,56(sp)
    80000888:	04813823          	sd	s0,80(sp)
    8000088c:	05213023          	sd	s2,64(sp)
    80000890:	03513423          	sd	s5,40(sp)
    80000894:	03613023          	sd	s6,32(sp)
    80000898:	04113c23          	sd	ra,88(sp)
    8000089c:	ffff87b7          	lui	a5,0xffff8
    800008a0:	0005b023          	sd	zero,0(a1)
    800008a4:	0807879b          	addiw	a5,a5,128
    800008a8:	00058413          	mv	s0,a1
    800008ac:	00060913          	mv	s2,a2
    800008b0:	01810693          	addi	a3,sp,24
    800008b4:	00810613          	addi	a2,sp,8
    800008b8:	00000a93          	li	s5,0
    800008bc:	ffe5049b          	addiw	s1,a0,-2
    800008c0:	02049a13          	slli	s4,s1,0x20
    800008c4:	020a5a13          	srli	s4,s4,0x20
    800008c8:	004a1993          	slli	s3,s4,0x4
    800008cc:	013589b3          	add	s3,a1,s3
    800008d0:	0135b423          	sd	s3,8(a1)
    800008d4:	00f99023          	sh	a5,0(s3)
    800008d8:	00099123          	sh	zero,2(s3)
    800008dc:	01058793          	addi	a5,a1,16
    800008e0:	00f13423          	sd	a5,8(sp)
    800008e4:	00498793          	addi	a5,s3,4
    800008e8:	00f13c23          	sd	a5,24(sp)
    800008ec:	002a1a13          	slli	s4,s4,0x2
    800008f0:	800007b7          	lui	a5,0x80000
    800008f4:	fff7c793          	not	a5,a5
    800008f8:	01498a33          	add	s4,s3,s4
    800008fc:	00f12823          	sw	a5,16(sp)
    80000900:	00098713          	mv	a4,s3
    80000904:	000a0793          	mv	a5,s4
    80000908:	01010593          	addi	a1,sp,16
    8000090c:	00040513          	mv	a0,s0
    80000910:	00048b1b          	sext.w	s6,s1
    80000914:	b05ff0ef          	jal	ra,80000418 <core_list_insert_new>
    80000918:	076ae063          	bltu	s5,s6,80000978 <core_list_init+0x108>
    8000091c:	00500513          	li	a0,5
    80000920:	02a4d4bb          	divuw	s1,s1,a0
    80000924:	00043783          	ld	a5,0(s0)
    80000928:	00004637          	lui	a2,0x4
    8000092c:	00100713          	li	a4,1
    80000930:	fff60613          	addi	a2,a2,-1 # 3fff <_start-0x7fffc001>
    80000934:	0007b583          	ld	a1,0(a5) # ffffffff80000000 <_pmem_end+0xfffffffef8000000>
    80000938:	08059663          	bnez	a1,800009c4 <core_list_init+0x154>
    8000093c:	00040513          	mv	a0,s0
    80000940:	00000613          	li	a2,0
    80000944:	00000597          	auipc	a1,0x0
    80000948:	93058593          	addi	a1,a1,-1744 # 80000274 <cmp_idx>
    8000094c:	bd5ff0ef          	jal	ra,80000520 <core_list_mergesort>
    80000950:	05813083          	ld	ra,88(sp)
    80000954:	05013403          	ld	s0,80(sp)
    80000958:	04813483          	ld	s1,72(sp)
    8000095c:	04013903          	ld	s2,64(sp)
    80000960:	03813983          	ld	s3,56(sp)
    80000964:	03013a03          	ld	s4,48(sp)
    80000968:	02813a83          	ld	s5,40(sp)
    8000096c:	02013b03          	ld	s6,32(sp)
    80000970:	06010113          	addi	sp,sp,96
    80000974:	00008067          	ret
    80000978:	030a9793          	slli	a5,s5,0x30
    8000097c:	0307d793          	srli	a5,a5,0x30
    80000980:	0127c6b3          	xor	a3,a5,s2
    80000984:	00369693          	slli	a3,a3,0x3
    80000988:	0077f793          	andi	a5,a5,7
    8000098c:	0786f693          	andi	a3,a3,120
    80000990:	00f6e6b3          	or	a3,a3,a5
    80000994:	00869793          	slli	a5,a3,0x8
    80000998:	00f6e6b3          	or	a3,a3,a5
    8000099c:	00d11823          	sh	a3,16(sp)
    800009a0:	000a0793          	mv	a5,s4
    800009a4:	00098713          	mv	a4,s3
    800009a8:	01810693          	addi	a3,sp,24
    800009ac:	00810613          	addi	a2,sp,8
    800009b0:	01010593          	addi	a1,sp,16
    800009b4:	00040513          	mv	a0,s0
    800009b8:	a61ff0ef          	jal	ra,80000418 <core_list_insert_new>
    800009bc:	001a8a9b          	addiw	s5,s5,1
    800009c0:	f59ff06f          	j	80000918 <core_list_init+0xa8>
    800009c4:	0087b503          	ld	a0,8(a5)
    800009c8:	00977a63          	bgeu	a4,s1,800009dc <core_list_init+0x16c>
    800009cc:	00e51123          	sh	a4,2(a0)
    800009d0:	0017071b          	addiw	a4,a4,1
    800009d4:	00058793          	mv	a5,a1
    800009d8:	f5dff06f          	j	80000934 <core_list_init+0xc4>
    800009dc:	03071693          	slli	a3,a4,0x30
    800009e0:	0306d693          	srli	a3,a3,0x30
    800009e4:	0016879b          	addiw	a5,a3,1
    800009e8:	0087979b          	slliw	a5,a5,0x8
    800009ec:	7007f793          	andi	a5,a5,1792
    800009f0:	0126c6b3          	xor	a3,a3,s2
    800009f4:	00d7e7b3          	or	a5,a5,a3
    800009f8:	00c7f7b3          	and	a5,a5,a2
    800009fc:	00f51123          	sh	a5,2(a0)
    80000a00:	fd1ff06f          	j	800009d0 <core_list_init+0x160>

0000000080000a04 <iterate>:
    80000a04:	fe010113          	addi	sp,sp,-32
    80000a08:	01213023          	sd	s2,0(sp)
    80000a0c:	02c52903          	lw	s2,44(a0)
    80000a10:	00813823          	sd	s0,16(sp)
    80000a14:	00913423          	sd	s1,8(sp)
    80000a18:	00113c23          	sd	ra,24(sp)
    80000a1c:	00050413          	mv	s0,a0
    80000a20:	06053023          	sd	zero,96(a0)
    80000a24:	00000493          	li	s1,0
    80000a28:	03249063          	bne	s1,s2,80000a48 <iterate+0x44>
    80000a2c:	01813083          	ld	ra,24(sp)
    80000a30:	01013403          	ld	s0,16(sp)
    80000a34:	00813483          	ld	s1,8(sp)
    80000a38:	00013903          	ld	s2,0(sp)
    80000a3c:	00000513          	li	a0,0
    80000a40:	02010113          	addi	sp,sp,32
    80000a44:	00008067          	ret
    80000a48:	00100593          	li	a1,1
    80000a4c:	00040513          	mv	a0,s0
    80000a50:	c01ff0ef          	jal	ra,80000650 <core_bench_list>
    80000a54:	06045583          	lhu	a1,96(s0)
    80000a58:	28c010ef          	jal	ra,80001ce4 <crcu16>
    80000a5c:	06a41023          	sh	a0,96(s0)
    80000a60:	fff00593          	li	a1,-1
    80000a64:	00040513          	mv	a0,s0
    80000a68:	be9ff0ef          	jal	ra,80000650 <core_bench_list>
    80000a6c:	06045583          	lhu	a1,96(s0)
    80000a70:	274010ef          	jal	ra,80001ce4 <crcu16>
    80000a74:	06a41023          	sh	a0,96(s0)
    80000a78:	00049463          	bnez	s1,80000a80 <iterate+0x7c>
    80000a7c:	06a41123          	sh	a0,98(s0)
    80000a80:	0014849b          	addiw	s1,s1,1
    80000a84:	fa5ff06f          	j	80000a28 <iterate+0x24>

0000000080000a88 <main_coremark>:
    80000a88:	f1010113          	addi	sp,sp,-240
    80000a8c:	00a12623          	sw	a0,12(sp)
    80000a90:	7d000513          	li	a0,2000
    80000a94:	0e113423          	sd	ra,232(sp)
    80000a98:	00b13023          	sd	a1,0(sp)
    80000a9c:	0e813023          	sd	s0,224(sp)
    80000aa0:	0c913c23          	sd	s1,216(sp)
    80000aa4:	0d213823          	sd	s2,208(sp)
    80000aa8:	0d313423          	sd	s3,200(sp)
    80000aac:	0d413023          	sd	s4,192(sp)
    80000ab0:	0b513c23          	sd	s5,184(sp)
    80000ab4:	0b613823          	sd	s6,176(sp)
    80000ab8:	0b713423          	sd	s7,168(sp)
    80000abc:	0b813023          	sd	s8,160(sp)
    80000ac0:	09913c23          	sd	s9,152(sp)
    80000ac4:	09a13823          	sd	s10,144(sp)
    80000ac8:	09b13423          	sd	s11,136(sp)
    80000acc:	0001b417          	auipc	s0,0x1b
    80000ad0:	dbc40413          	addi	s0,s0,-580 # 8001b888 <static_memblk>
    80000ad4:	509010ef          	jal	ra,800027dc <alloc_buffer>
    80000ad8:	00a43023          	sd	a0,0(s0)
    80000adc:	30c070ef          	jal	ra,80007de8 <_ioe_init>
    80000ae0:	00a00593          	li	a1,10
    80000ae4:	0000b517          	auipc	a0,0xb
    80000ae8:	67450513          	addi	a0,a0,1652 # 8000c158 <__clzdi2+0xbc>
    80000aec:	345080ef          	jal	ra,80009630 <printf_>
    80000af0:	00013603          	ld	a2,0(sp)
    80000af4:	00c10593          	addi	a1,sp,12
    80000af8:	07a10513          	addi	a0,sp,122
    80000afc:	41d000ef          	jal	ra,80001718 <portable_init>
    80000b00:	00100513          	li	a0,1
    80000b04:	11c010ef          	jal	ra,80001c20 <get_seed_32>
    80000b08:	00a11823          	sh	a0,16(sp)
    80000b0c:	00200513          	li	a0,2
    80000b10:	110010ef          	jal	ra,80001c20 <get_seed_32>
    80000b14:	00a11923          	sh	a0,18(sp)
    80000b18:	00300513          	li	a0,3
    80000b1c:	104010ef          	jal	ra,80001c20 <get_seed_32>
    80000b20:	00a11a23          	sh	a0,20(sp)
    80000b24:	00400513          	li	a0,4
    80000b28:	0f8010ef          	jal	ra,80001c20 <get_seed_32>
    80000b2c:	02a12e23          	sw	a0,60(sp)
    80000b30:	00500513          	li	a0,5
    80000b34:	0ec010ef          	jal	ra,80001c20 <get_seed_32>
    80000b38:	0005051b          	sext.w	a0,a0
    80000b3c:	34050e63          	beqz	a0,80000e98 <main_coremark+0x410>
    80000b40:	04a12023          	sw	a0,64(sp)
    80000b44:	01013783          	ld	a5,16(sp)
    80000b48:	01079793          	slli	a5,a5,0x10
    80000b4c:	00079863          	bnez	a5,80000b5c <main_coremark+0xd4>
    80000b50:	06600793          	li	a5,102
    80000b54:	00012823          	sw	zero,16(sp)
    80000b58:	00f11a23          	sh	a5,20(sp)
    80000b5c:	01013783          	ld	a5,16(sp)
    80000b60:	00100713          	li	a4,1
    80000b64:	01079793          	slli	a5,a5,0x10
    80000b68:	0107d793          	srli	a5,a5,0x10
    80000b6c:	00e79c63          	bne	a5,a4,80000b84 <main_coremark+0xfc>
    80000b70:	341537b7          	lui	a5,0x34153
    80000b74:	4157879b          	addiw	a5,a5,1045
    80000b78:	00f12823          	sw	a5,16(sp)
    80000b7c:	06600793          	li	a5,102
    80000b80:	00f11a23          	sh	a5,20(sp)
    80000b84:	04012703          	lw	a4,64(sp)
    80000b88:	00043803          	ld	a6,0(s0)
    80000b8c:	06011c23          	sh	zero,120(sp)
    80000b90:	00177893          	andi	a7,a4,1
    80000b94:	01013c23          	sd	a6,24(sp)
    80000b98:	00277693          	andi	a3,a4,2
    80000b9c:	00088793          	mv	a5,a7
    80000ba0:	00068863          	beqz	a3,80000bb0 <main_coremark+0x128>
    80000ba4:	0018879b          	addiw	a5,a7,1
    80000ba8:	03079793          	slli	a5,a5,0x30
    80000bac:	0307d793          	srli	a5,a5,0x30
    80000bb0:	00477693          	andi	a3,a4,4
    80000bb4:	00068863          	beqz	a3,80000bc4 <main_coremark+0x13c>
    80000bb8:	0017879b          	addiw	a5,a5,1
    80000bbc:	03079793          	slli	a5,a5,0x30
    80000bc0:	0307d793          	srli	a5,a5,0x30
    80000bc4:	7d000693          	li	a3,2000
    80000bc8:	02f6d53b          	divuw	a0,a3,a5
    80000bcc:	00100e13          	li	t3,1
    80000bd0:	00000793          	li	a5,0
    80000bd4:	00000693          	li	a3,0
    80000bd8:	00300313          	li	t1,3
    80000bdc:	02a12c23          	sw	a0,56(sp)
    80000be0:	00fe163b          	sllw	a2,t3,a5
    80000be4:	00c77633          	and	a2,a4,a2
    80000be8:	0006061b          	sext.w	a2,a2
    80000bec:	02060463          	beqz	a2,80000c14 <main_coremark+0x18c>
    80000bf0:	01010593          	addi	a1,sp,16
    80000bf4:	00379613          	slli	a2,a5,0x3
    80000bf8:	00c58633          	add	a2,a1,a2
    80000bfc:	02a685b3          	mul	a1,a3,a0
    80000c00:	0016869b          	addiw	a3,a3,1
    80000c04:	03069693          	slli	a3,a3,0x30
    80000c08:	0306d693          	srli	a3,a3,0x30
    80000c0c:	00b805b3          	add	a1,a6,a1
    80000c10:	00b63823          	sd	a1,16(a2)
    80000c14:	00178793          	addi	a5,a5,1 # 34153001 <_start-0x4beacfff>
    80000c18:	fc6794e3          	bne	a5,t1,80000be0 <main_coremark+0x158>
    80000c1c:	00088a63          	beqz	a7,80000c30 <main_coremark+0x1a8>
    80000c20:	01011603          	lh	a2,16(sp)
    80000c24:	02013583          	ld	a1,32(sp)
    80000c28:	c49ff0ef          	jal	ra,80000870 <core_list_init>
    80000c2c:	04a13423          	sd	a0,72(sp)
    80000c30:	04012783          	lw	a5,64(sp)
    80000c34:	0027f793          	andi	a5,a5,2
    80000c38:	02078463          	beqz	a5,80000c60 <main_coremark+0x1d8>
    80000c3c:	01211603          	lh	a2,18(sp)
    80000c40:	01011783          	lh	a5,16(sp)
    80000c44:	02813583          	ld	a1,40(sp)
    80000c48:	0106161b          	slliw	a2,a2,0x10
    80000c4c:	03812503          	lw	a0,56(sp)
    80000c50:	00f66633          	or	a2,a2,a5
    80000c54:	05010693          	addi	a3,sp,80
    80000c58:	0006061b          	sext.w	a2,a2
    80000c5c:	504000ef          	jal	ra,80001160 <core_init_matrix>
    80000c60:	04012783          	lw	a5,64(sp)
    80000c64:	0047f793          	andi	a5,a5,4
    80000c68:	00078a63          	beqz	a5,80000c7c <main_coremark+0x1f4>
    80000c6c:	03013603          	ld	a2,48(sp)
    80000c70:	01011583          	lh	a1,16(sp)
    80000c74:	03812503          	lw	a0,56(sp)
    80000c78:	2b5000ef          	jal	ra,8000172c <core_init_state>
    80000c7c:	03c12783          	lw	a5,60(sp)
    80000c80:	04079a63          	bnez	a5,80000cd4 <main_coremark+0x24c>
    80000c84:	00100793          	li	a5,1
    80000c88:	02f12e23          	sw	a5,60(sp)
    80000c8c:	00a00413          	li	s0,10
    80000c90:	03c12783          	lw	a5,60(sp)
    80000c94:	028787bb          	mulw	a5,a5,s0
    80000c98:	02f12e23          	sw	a5,60(sp)
    80000c9c:	211000ef          	jal	ra,800016ac <start_time>
    80000ca0:	01010513          	addi	a0,sp,16
    80000ca4:	d61ff0ef          	jal	ra,80000a04 <iterate>
    80000ca8:	22d000ef          	jal	ra,800016d4 <stop_time>
    80000cac:	251000ef          	jal	ra,800016fc <get_time>
    80000cb0:	0005051b          	sext.w	a0,a0
    80000cb4:	261000ef          	jal	ra,80001714 <time_in_secs>
    80000cb8:	0005051b          	sext.w	a0,a0
    80000cbc:	fc050ae3          	beqz	a0,80000c90 <main_coremark+0x208>
    80000cc0:	02a4543b          	divuw	s0,s0,a0
    80000cc4:	03c12783          	lw	a5,60(sp)
    80000cc8:	0014041b          	addiw	s0,s0,1
    80000ccc:	0287843b          	mulw	s0,a5,s0
    80000cd0:	02812e23          	sw	s0,60(sp)
    80000cd4:	1d9000ef          	jal	ra,800016ac <start_time>
    80000cd8:	01010513          	addi	a0,sp,16
    80000cdc:	d29ff0ef          	jal	ra,80000a04 <iterate>
    80000ce0:	1f5000ef          	jal	ra,800016d4 <stop_time>
    80000ce4:	219000ef          	jal	ra,800016fc <get_time>
    80000ce8:	00050a9b          	sext.w	s5,a0
    80000cec:	01011503          	lh	a0,16(sp)
    80000cf0:	00000593          	li	a1,0
    80000cf4:	0001b917          	auipc	s2,0x1b
    80000cf8:	b6c90913          	addi	s2,s2,-1172 # 8001b860 <default_num_contexts>
    80000cfc:	04c010ef          	jal	ra,80001d48 <crc16>
    80000d00:	00050593          	mv	a1,a0
    80000d04:	01211503          	lh	a0,18(sp)
    80000d08:	040010ef          	jal	ra,80001d48 <crc16>
    80000d0c:	00050593          	mv	a1,a0
    80000d10:	01411503          	lh	a0,20(sp)
    80000d14:	034010ef          	jal	ra,80001d48 <crc16>
    80000d18:	00050593          	mv	a1,a0
    80000d1c:	03811503          	lh	a0,56(sp)
    80000d20:	028010ef          	jal	ra,80001d48 <crc16>
    80000d24:	000087b7          	lui	a5,0x8
    80000d28:	0005049b          	sext.w	s1,a0
    80000d2c:	b0578793          	addi	a5,a5,-1275 # 7b05 <_start-0x7fff84fb>
    80000d30:	1ef48463          	beq	s1,a5,80000f18 <main_coremark+0x490>
    80000d34:	1697e863          	bltu	a5,s1,80000ea4 <main_coremark+0x41c>
    80000d38:	000027b7          	lui	a5,0x2
    80000d3c:	8f278793          	addi	a5,a5,-1806 # 18f2 <_start-0x7fffe70e>
    80000d40:	20f48063          	beq	s1,a5,80000f40 <main_coremark+0x4b8>
    80000d44:	000057b7          	lui	a5,0x5
    80000d48:	eaf78793          	addi	a5,a5,-337 # 4eaf <_start-0x7fffb151>
    80000d4c:	1ef48063          	beq	s1,a5,80000f2c <main_coremark+0x4a4>
    80000d50:	fff00b13          	li	s6,-1
    80000d54:	000010ef          	jal	ra,80001d54 <check_data_types>
    80000d58:	03812583          	lw	a1,56(sp)
    80000d5c:	01650b3b          	addw	s6,a0,s6
    80000d60:	0000b517          	auipc	a0,0xb
    80000d64:	5b050513          	addi	a0,a0,1456 # 8000c310 <__clzdi2+0x274>
    80000d68:	0c9080ef          	jal	ra,80009630 <printf_>
    80000d6c:	000a8513          	mv	a0,s5
    80000d70:	1a5000ef          	jal	ra,80001714 <time_in_secs>
    80000d74:	0005059b          	sext.w	a1,a0
    80000d78:	0000b517          	auipc	a0,0xb
    80000d7c:	5b050513          	addi	a0,a0,1456 # 8000c328 <__clzdi2+0x28c>
    80000d80:	0b1080ef          	jal	ra,80009630 <printf_>
    80000d84:	00092783          	lw	a5,0(s2)
    80000d88:	03c12583          	lw	a1,60(sp)
    80000d8c:	0000b517          	auipc	a0,0xb
    80000d90:	5b450513          	addi	a0,a0,1460 # 8000c340 <__clzdi2+0x2a4>
    80000d94:	010b1b1b          	slliw	s6,s6,0x10
    80000d98:	02f585bb          	mulw	a1,a1,a5
    80000d9c:	410b5b1b          	sraiw	s6,s6,0x10
    80000da0:	091080ef          	jal	ra,80009630 <printf_>
    80000da4:	0000b597          	auipc	a1,0xb
    80000da8:	5b458593          	addi	a1,a1,1460 # 8000c358 <__clzdi2+0x2bc>
    80000dac:	0000b517          	auipc	a0,0xb
    80000db0:	5bc50513          	addi	a0,a0,1468 # 8000c368 <__clzdi2+0x2cc>
    80000db4:	07d080ef          	jal	ra,80009630 <printf_>
    80000db8:	00048593          	mv	a1,s1
    80000dbc:	0000b517          	auipc	a0,0xb
    80000dc0:	5c450513          	addi	a0,a0,1476 # 8000c380 <__clzdi2+0x2e4>
    80000dc4:	06d080ef          	jal	ra,80009630 <printf_>
    80000dc8:	04012783          	lw	a5,64(sp)
    80000dcc:	0017f793          	andi	a5,a5,1
    80000dd0:	2a079463          	bnez	a5,80001078 <main_coremark+0x5f0>
    80000dd4:	04012783          	lw	a5,64(sp)
    80000dd8:	0027f793          	andi	a5,a5,2
    80000ddc:	2e079263          	bnez	a5,800010c0 <main_coremark+0x638>
    80000de0:	04012783          	lw	a5,64(sp)
    80000de4:	0047f793          	andi	a5,a5,4
    80000de8:	32079063          	bnez	a5,80001108 <main_coremark+0x680>
    80000dec:	00000413          	li	s0,0
    80000df0:	07000493          	li	s1,112
    80000df4:	0000b997          	auipc	s3,0xb
    80000df8:	60c98993          	addi	s3,s3,1548 # 8000c400 <__clzdi2+0x364>
    80000dfc:	00092783          	lw	a5,0(s2)
    80000e00:	0004059b          	sext.w	a1,s0
    80000e04:	30f46c63          	bltu	s0,a5,8000111c <main_coremark+0x694>
    80000e08:	000a8593          	mv	a1,s5
    80000e0c:	0000b517          	auipc	a0,0xb
    80000e10:	61450513          	addi	a0,a0,1556 # 8000c420 <__clzdi2+0x384>
    80000e14:	01d080ef          	jal	ra,80009630 <printf_>
    80000e18:	320b1663          	bnez	s6,80001144 <main_coremark+0x6bc>
    80000e1c:	0000b517          	auipc	a0,0xb
    80000e20:	61c50513          	addi	a0,a0,1564 # 8000c438 <__clzdi2+0x39c>
    80000e24:	00d080ef          	jal	ra,80009630 <printf_>
    80000e28:	00092403          	lw	s0,0(s2)
    80000e2c:	000025b7          	lui	a1,0x2
    80000e30:	7105859b          	addiw	a1,a1,1808
    80000e34:	02b4043b          	mulw	s0,s0,a1
    80000e38:	000a8513          	mv	a0,s5
    80000e3c:	0d9000ef          	jal	ra,80001714 <time_in_secs>
    80000e40:	02a455bb          	divuw	a1,s0,a0
    80000e44:	0000b517          	auipc	a0,0xb
    80000e48:	62c50513          	addi	a0,a0,1580 # 8000c470 <__clzdi2+0x3d4>
    80000e4c:	7e4080ef          	jal	ra,80009630 <printf_>
    80000e50:	07a10513          	addi	a0,sp,122
    80000e54:	0d1000ef          	jal	ra,80001724 <portable_fini>
    80000e58:	0e813083          	ld	ra,232(sp)
    80000e5c:	0e013403          	ld	s0,224(sp)
    80000e60:	0d813483          	ld	s1,216(sp)
    80000e64:	0d013903          	ld	s2,208(sp)
    80000e68:	0c813983          	ld	s3,200(sp)
    80000e6c:	0c013a03          	ld	s4,192(sp)
    80000e70:	0b813a83          	ld	s5,184(sp)
    80000e74:	0b013b03          	ld	s6,176(sp)
    80000e78:	0a813b83          	ld	s7,168(sp)
    80000e7c:	0a013c03          	ld	s8,160(sp)
    80000e80:	09813c83          	ld	s9,152(sp)
    80000e84:	09013d03          	ld	s10,144(sp)
    80000e88:	08813d83          	ld	s11,136(sp)
    80000e8c:	00000513          	li	a0,0
    80000e90:	0f010113          	addi	sp,sp,240
    80000e94:	00008067          	ret
    80000e98:	00700793          	li	a5,7
    80000e9c:	04f12023          	sw	a5,64(sp)
    80000ea0:	ca5ff06f          	j	80000b44 <main_coremark+0xbc>
    80000ea4:	000097b7          	lui	a5,0x9
    80000ea8:	a0278793          	addi	a5,a5,-1534 # 8a02 <_start-0x7fff75fe>
    80000eac:	02f48263          	beq	s1,a5,80000ed0 <main_coremark+0x448>
    80000eb0:	0000f7b7          	lui	a5,0xf
    80000eb4:	9f578793          	addi	a5,a5,-1547 # e9f5 <_start-0x7fff160b>
    80000eb8:	e8f49ce3          	bne	s1,a5,80000d50 <main_coremark+0x2c8>
    80000ebc:	0000b517          	auipc	a0,0xb
    80000ec0:	35c50513          	addi	a0,a0,860 # 8000c218 <__clzdi2+0x17c>
    80000ec4:	76c080ef          	jal	ra,80009630 <printf_>
    80000ec8:	00300793          	li	a5,3
    80000ecc:	0140006f          	j	80000ee0 <main_coremark+0x458>
    80000ed0:	0000b517          	auipc	a0,0xb
    80000ed4:	2b050513          	addi	a0,a0,688 # 8000c180 <__clzdi2+0xe4>
    80000ed8:	758080ef          	jal	ra,80009630 <printf_>
    80000edc:	00000793          	li	a5,0
    80000ee0:	00179793          	slli	a5,a5,0x1
    80000ee4:	0000bb97          	auipc	s7,0xb
    80000ee8:	644b8b93          	addi	s7,s7,1604 # 8000c528 <list_known_crc>
    80000eec:	00000b13          	li	s6,0
    80000ef0:	00000a13          	li	s4,0
    80000ef4:	07000c13          	li	s8,112
    80000ef8:	00fb8bb3          	add	s7,s7,a5
    80000efc:	0000bc97          	auipc	s9,0xb
    80000f00:	37cc8c93          	addi	s9,s9,892 # 8000c278 <__clzdi2+0x1dc>
    80000f04:	0000bd17          	auipc	s10,0xb
    80000f08:	3a4d0d13          	addi	s10,s10,932 # 8000c2a8 <__clzdi2+0x20c>
    80000f0c:	0000bd97          	auipc	s11,0xb
    80000f10:	3d4d8d93          	addi	s11,s11,980 # 8000c2e0 <__clzdi2+0x244>
    80000f14:	1200006f          	j	80001034 <main_coremark+0x5ac>
    80000f18:	0000b517          	auipc	a0,0xb
    80000f1c:	29850513          	addi	a0,a0,664 # 8000c1b0 <__clzdi2+0x114>
    80000f20:	710080ef          	jal	ra,80009630 <printf_>
    80000f24:	00100793          	li	a5,1
    80000f28:	fb9ff06f          	j	80000ee0 <main_coremark+0x458>
    80000f2c:	0000b517          	auipc	a0,0xb
    80000f30:	2b450513          	addi	a0,a0,692 # 8000c1e0 <__clzdi2+0x144>
    80000f34:	6fc080ef          	jal	ra,80009630 <printf_>
    80000f38:	00200793          	li	a5,2
    80000f3c:	fa5ff06f          	j	80000ee0 <main_coremark+0x458>
    80000f40:	0000b517          	auipc	a0,0xb
    80000f44:	30850513          	addi	a0,a0,776 # 8000c248 <__clzdi2+0x1ac>
    80000f48:	6e8080ef          	jal	ra,80009630 <printf_>
    80000f4c:	00400793          	li	a5,4
    80000f50:	f91ff06f          	j	80000ee0 <main_coremark+0x458>
    80000f54:	038409b3          	mul	s3,s0,s8
    80000f58:	08010793          	addi	a5,sp,128
    80000f5c:	013789b3          	add	s3,a5,s3
    80000f60:	fc09a783          	lw	a5,-64(s3)
    80000f64:	fe099c23          	sh	zero,-8(s3)
    80000f68:	0017f793          	andi	a5,a5,1
    80000f6c:	02078463          	beqz	a5,80000f94 <main_coremark+0x50c>
    80000f70:	ff29d603          	lhu	a2,-14(s3)
    80000f74:	000bd683          	lhu	a3,0(s7)
    80000f78:	00d60e63          	beq	a2,a3,80000f94 <main_coremark+0x50c>
    80000f7c:	00040593          	mv	a1,s0
    80000f80:	000c8513          	mv	a0,s9
    80000f84:	6ac080ef          	jal	ra,80009630 <printf_>
    80000f88:	ff89d783          	lhu	a5,-8(s3)
    80000f8c:	0017879b          	addiw	a5,a5,1
    80000f90:	fef99c23          	sh	a5,-8(s3)
    80000f94:	038409b3          	mul	s3,s0,s8
    80000f98:	08010793          	addi	a5,sp,128
    80000f9c:	013789b3          	add	s3,a5,s3
    80000fa0:	fc09a783          	lw	a5,-64(s3)
    80000fa4:	0027f793          	andi	a5,a5,2
    80000fa8:	02078463          	beqz	a5,80000fd0 <main_coremark+0x548>
    80000fac:	ff49d603          	lhu	a2,-12(s3)
    80000fb0:	010bd683          	lhu	a3,16(s7)
    80000fb4:	00d60e63          	beq	a2,a3,80000fd0 <main_coremark+0x548>
    80000fb8:	00040593          	mv	a1,s0
    80000fbc:	000d0513          	mv	a0,s10
    80000fc0:	670080ef          	jal	ra,80009630 <printf_>
    80000fc4:	ff89d783          	lhu	a5,-8(s3)
    80000fc8:	0017879b          	addiw	a5,a5,1
    80000fcc:	fef99c23          	sh	a5,-8(s3)
    80000fd0:	038409b3          	mul	s3,s0,s8
    80000fd4:	08010793          	addi	a5,sp,128
    80000fd8:	013789b3          	add	s3,a5,s3
    80000fdc:	fc09a783          	lw	a5,-64(s3)
    80000fe0:	0047f793          	andi	a5,a5,4
    80000fe4:	02078463          	beqz	a5,8000100c <main_coremark+0x584>
    80000fe8:	ff69d603          	lhu	a2,-10(s3)
    80000fec:	020bd683          	lhu	a3,32(s7)
    80000ff0:	00d60e63          	beq	a2,a3,8000100c <main_coremark+0x584>
    80000ff4:	00040593          	mv	a1,s0
    80000ff8:	000d8513          	mv	a0,s11
    80000ffc:	634080ef          	jal	ra,80009630 <printf_>
    80001000:	ff89d783          	lhu	a5,-8(s3)
    80001004:	0017879b          	addiw	a5,a5,1
    80001008:	fef99c23          	sh	a5,-8(s3)
    8000100c:	03840433          	mul	s0,s0,s8
    80001010:	08010793          	addi	a5,sp,128
    80001014:	001a0a1b          	addiw	s4,s4,1
    80001018:	030a1a13          	slli	s4,s4,0x30
    8000101c:	030a5a13          	srli	s4,s4,0x30
    80001020:	00878433          	add	s0,a5,s0
    80001024:	ff845503          	lhu	a0,-8(s0)
    80001028:	01650b3b          	addw	s6,a0,s6
    8000102c:	010b1b1b          	slliw	s6,s6,0x10
    80001030:	410b5b1b          	sraiw	s6,s6,0x10
    80001034:	00092783          	lw	a5,0(s2)
    80001038:	000a041b          	sext.w	s0,s4
    8000103c:	f0fa6ce3          	bltu	s4,a5,80000f54 <main_coremark+0x4cc>
    80001040:	d15ff06f          	j	80000d54 <main_coremark+0x2cc>
    80001044:	029587b3          	mul	a5,a1,s1
    80001048:	08010713          	addi	a4,sp,128
    8000104c:	0014041b          	addiw	s0,s0,1
    80001050:	00098513          	mv	a0,s3
    80001054:	03041413          	slli	s0,s0,0x30
    80001058:	03045413          	srli	s0,s0,0x30
    8000105c:	00f707b3          	add	a5,a4,a5
    80001060:	ff27d603          	lhu	a2,-14(a5)
    80001064:	5cc080ef          	jal	ra,80009630 <printf_>
    80001068:	00092783          	lw	a5,0(s2)
    8000106c:	0004059b          	sext.w	a1,s0
    80001070:	fcf46ae3          	bltu	s0,a5,80001044 <main_coremark+0x5bc>
    80001074:	d61ff06f          	j	80000dd4 <main_coremark+0x34c>
    80001078:	00000413          	li	s0,0
    8000107c:	07000493          	li	s1,112
    80001080:	0000b997          	auipc	s3,0xb
    80001084:	32098993          	addi	s3,s3,800 # 8000c3a0 <__clzdi2+0x304>
    80001088:	fe1ff06f          	j	80001068 <main_coremark+0x5e0>
    8000108c:	029587b3          	mul	a5,a1,s1
    80001090:	08010713          	addi	a4,sp,128
    80001094:	0014041b          	addiw	s0,s0,1
    80001098:	00098513          	mv	a0,s3
    8000109c:	03041413          	slli	s0,s0,0x30
    800010a0:	03045413          	srli	s0,s0,0x30
    800010a4:	00f707b3          	add	a5,a4,a5
    800010a8:	ff47d603          	lhu	a2,-12(a5)
    800010ac:	584080ef          	jal	ra,80009630 <printf_>
    800010b0:	00092783          	lw	a5,0(s2)
    800010b4:	0004059b          	sext.w	a1,s0
    800010b8:	fcf46ae3          	bltu	s0,a5,8000108c <main_coremark+0x604>
    800010bc:	d25ff06f          	j	80000de0 <main_coremark+0x358>
    800010c0:	00000413          	li	s0,0
    800010c4:	07000493          	li	s1,112
    800010c8:	0000b997          	auipc	s3,0xb
    800010cc:	2f898993          	addi	s3,s3,760 # 8000c3c0 <__clzdi2+0x324>
    800010d0:	fe1ff06f          	j	800010b0 <main_coremark+0x628>
    800010d4:	029587b3          	mul	a5,a1,s1
    800010d8:	08010713          	addi	a4,sp,128
    800010dc:	0014041b          	addiw	s0,s0,1
    800010e0:	00098513          	mv	a0,s3
    800010e4:	03041413          	slli	s0,s0,0x30
    800010e8:	03045413          	srli	s0,s0,0x30
    800010ec:	00f707b3          	add	a5,a4,a5
    800010f0:	ff67d603          	lhu	a2,-10(a5)
    800010f4:	53c080ef          	jal	ra,80009630 <printf_>
    800010f8:	00092783          	lw	a5,0(s2)
    800010fc:	0004059b          	sext.w	a1,s0
    80001100:	fcf46ae3          	bltu	s0,a5,800010d4 <main_coremark+0x64c>
    80001104:	ce9ff06f          	j	80000dec <main_coremark+0x364>
    80001108:	00000413          	li	s0,0
    8000110c:	07000493          	li	s1,112
    80001110:	0000b997          	auipc	s3,0xb
    80001114:	2d098993          	addi	s3,s3,720 # 8000c3e0 <__clzdi2+0x344>
    80001118:	fe1ff06f          	j	800010f8 <main_coremark+0x670>
    8000111c:	029587b3          	mul	a5,a1,s1
    80001120:	08010713          	addi	a4,sp,128
    80001124:	0014041b          	addiw	s0,s0,1
    80001128:	00098513          	mv	a0,s3
    8000112c:	03041413          	slli	s0,s0,0x30
    80001130:	03045413          	srli	s0,s0,0x30
    80001134:	00f707b3          	add	a5,a4,a5
    80001138:	ff07d603          	lhu	a2,-16(a5)
    8000113c:	4f4080ef          	jal	ra,80009630 <printf_>
    80001140:	cbdff06f          	j	80000dfc <main_coremark+0x374>
    80001144:	0000b517          	auipc	a0,0xb
    80001148:	34c50513          	addi	a0,a0,844 # 8000c490 <__clzdi2+0x3f4>
    8000114c:	01604663          	bgtz	s6,80001158 <main_coremark+0x6d0>
    80001150:	0000b517          	auipc	a0,0xb
    80001154:	35850513          	addi	a0,a0,856 # 8000c4a8 <__clzdi2+0x40c>
    80001158:	4d8080ef          	jal	ra,80009630 <printf_>
    8000115c:	cf5ff06f          	j	80000e50 <main_coremark+0x3c8>

0000000080001160 <core_init_matrix>:
    80001160:	ff010113          	addi	sp,sp,-16
    80001164:	00813423          	sd	s0,8(sp)
    80001168:	00913023          	sd	s1,0(sp)
    8000116c:	00061463          	bnez	a2,80001174 <core_init_matrix+0x14>
    80001170:	00100613          	li	a2,1
    80001174:	00000713          	li	a4,0
    80001178:	00000313          	li	t1,0
    8000117c:	0100006f          	j	8000118c <core_init_matrix+0x2c>
    80001180:	0013031b          	addiw	t1,t1,1
    80001184:	0263073b          	mulw	a4,t1,t1
    80001188:	0037171b          	slliw	a4,a4,0x3
    8000118c:	fea76ae3          	bltu	a4,a0,80001180 <core_init_matrix+0x20>
    80001190:	fff3051b          	addiw	a0,t1,-1
    80001194:	fff58813          	addi	a6,a1,-1 # 1fff <_start-0x7fffe001>
    80001198:	02a505bb          	mulw	a1,a0,a0
    8000119c:	ffc87813          	andi	a6,a6,-4
    800011a0:	00480813          	addi	a6,a6,4
    800011a4:	00050313          	mv	t1,a0
    800011a8:	00000293          	li	t0,0
    800011ac:	00000f13          	li	t5,0
    800011b0:	00100f93          	li	t6,1
    800011b4:	00010437          	lui	s0,0x10
    800011b8:	02059593          	slli	a1,a1,0x20
    800011bc:	01f5de13          	srli	t3,a1,0x1f
    800011c0:	01c805b3          	add	a1,a6,t3
    800011c4:	08af6a63          	bltu	t5,a0,80001258 <core_init_matrix+0xf8>
    800011c8:	00b6b823          	sd	a1,16(a3)
    800011cc:	01c585b3          	add	a1,a1,t3
    800011d0:	fff58593          	addi	a1,a1,-1
    800011d4:	00813403          	ld	s0,8(sp)
    800011d8:	ffc5f593          	andi	a1,a1,-4
    800011dc:	00458593          	addi	a1,a1,4
    800011e0:	0106b423          	sd	a6,8(a3)
    800011e4:	00b6bc23          	sd	a1,24(a3)
    800011e8:	0066a023          	sw	t1,0(a3)
    800011ec:	00013483          	ld	s1,0(sp)
    800011f0:	01010113          	addi	sp,sp,16
    800011f4:	00008067          	ret
    800011f8:	02f607bb          	mulw	a5,a2,a5
    800011fc:	01fe873b          	addw	a4,t4,t6
    80001200:	03071713          	slli	a4,a4,0x30
    80001204:	03075713          	srli	a4,a4,0x30
    80001208:	005e88bb          	addw	a7,t4,t0
    8000120c:	02089893          	slli	a7,a7,0x20
    80001210:	01f8d893          	srli	a7,a7,0x1f
    80001214:	011584b3          	add	s1,a1,a7
    80001218:	011808b3          	add	a7,a6,a7
    8000121c:	001e8e9b          	addiw	t4,t4,1
    80001220:	0287e63b          	remw	a2,a5,s0
    80001224:	00e607bb          	addw	a5,a2,a4
    80001228:	03079793          	slli	a5,a5,0x30
    8000122c:	0307d793          	srli	a5,a5,0x30
    80001230:	00e7873b          	addw	a4,a5,a4
    80001234:	00f49023          	sh	a5,0(s1)
    80001238:	0ff77713          	andi	a4,a4,255
    8000123c:	00e89023          	sh	a4,0(a7)
    80001240:	01d387bb          	addw	a5,t2,t4
    80001244:	faaeeae3          	bltu	t4,a0,800011f8 <core_init_matrix+0x98>
    80001248:	00a38fbb          	addw	t6,t2,a0
    8000124c:	001f0f1b          	addiw	t5,t5,1
    80001250:	005502bb          	addw	t0,a0,t0
    80001254:	f71ff06f          	j	800011c4 <core_init_matrix+0x64>
    80001258:	00000e93          	li	t4,0
    8000125c:	000f839b          	sext.w	t2,t6
    80001260:	fe1ff06f          	j	80001240 <core_init_matrix+0xe0>

0000000080001264 <matrix_sum>:
    80001264:	00050813          	mv	a6,a0
    80001268:	00000e93          	li	t4,0
    8000126c:	00000e13          	li	t3,0
    80001270:	00000513          	li	a0,0
    80001274:	00000693          	li	a3,0
    80001278:	00000893          	li	a7,0
    8000127c:	070e1463          	bne	t3,a6,800012e4 <matrix_sum+0x80>
    80001280:	00008067          	ret
    80001284:	01d3073b          	addw	a4,t1,t4
    80001288:	02071713          	slli	a4,a4,0x20
    8000128c:	01e75713          	srli	a4,a4,0x1e
    80001290:	00e58733          	add	a4,a1,a4
    80001294:	00072703          	lw	a4,0(a4)
    80001298:	03051793          	slli	a5,a0,0x30
    8000129c:	0307d793          	srli	a5,a5,0x30
    800012a0:	00e888bb          	addw	a7,a7,a4
    800012a4:	03165663          	bge	a2,a7,800012d0 <matrix_sum+0x6c>
    800012a8:	00a7879b          	addiw	a5,a5,10
    800012ac:	0107951b          	slliw	a0,a5,0x10
    800012b0:	4105551b          	sraiw	a0,a0,0x10
    800012b4:	00000893          	li	a7,0
    800012b8:	0013031b          	addiw	t1,t1,1
    800012bc:	00070693          	mv	a3,a4
    800012c0:	fd0312e3          	bne	t1,a6,80001284 <matrix_sum+0x20>
    800012c4:	001e0e1b          	addiw	t3,t3,1
    800012c8:	01d80ebb          	addw	t4,a6,t4
    800012cc:	fb1ff06f          	j	8000127c <matrix_sum+0x18>
    800012d0:	00e6a6b3          	slt	a3,a3,a4
    800012d4:	00f687bb          	addw	a5,a3,a5
    800012d8:	0107951b          	slliw	a0,a5,0x10
    800012dc:	4105551b          	sraiw	a0,a0,0x10
    800012e0:	fd9ff06f          	j	800012b8 <matrix_sum+0x54>
    800012e4:	00000313          	li	t1,0
    800012e8:	fd9ff06f          	j	800012c0 <matrix_sum+0x5c>

00000000800012ec <matrix_mul_const>:
    800012ec:	00000893          	li	a7,0
    800012f0:	00000813          	li	a6,0
    800012f4:	04a81263          	bne	a6,a0,80001338 <matrix_mul_const+0x4c>
    800012f8:	00008067          	ret
    800012fc:	011707bb          	addw	a5,a4,a7
    80001300:	02079793          	slli	a5,a5,0x20
    80001304:	0207d793          	srli	a5,a5,0x20
    80001308:	00279313          	slli	t1,a5,0x2
    8000130c:	00179793          	slli	a5,a5,0x1
    80001310:	00f607b3          	add	a5,a2,a5
    80001314:	00079783          	lh	a5,0(a5)
    80001318:	00658333          	add	t1,a1,t1
    8000131c:	0017071b          	addiw	a4,a4,1
    80001320:	02d787bb          	mulw	a5,a5,a3
    80001324:	00f32023          	sw	a5,0(t1)
    80001328:	fca71ae3          	bne	a4,a0,800012fc <matrix_mul_const+0x10>
    8000132c:	0018081b          	addiw	a6,a6,1
    80001330:	011508bb          	addw	a7,a0,a7
    80001334:	fc1ff06f          	j	800012f4 <matrix_mul_const+0x8>
    80001338:	00000713          	li	a4,0
    8000133c:	fedff06f          	j	80001328 <matrix_mul_const+0x3c>

0000000080001340 <matrix_add_const>:
    80001340:	00000813          	li	a6,0
    80001344:	00000693          	li	a3,0
    80001348:	02a69c63          	bne	a3,a0,80001380 <matrix_add_const+0x40>
    8000134c:	00008067          	ret
    80001350:	010707bb          	addw	a5,a4,a6
    80001354:	02079793          	slli	a5,a5,0x20
    80001358:	01f7d793          	srli	a5,a5,0x1f
    8000135c:	00f587b3          	add	a5,a1,a5
    80001360:	0007d883          	lhu	a7,0(a5)
    80001364:	0017071b          	addiw	a4,a4,1
    80001368:	00c888bb          	addw	a7,a7,a2
    8000136c:	01179023          	sh	a7,0(a5)
    80001370:	fea710e3          	bne	a4,a0,80001350 <matrix_add_const+0x10>
    80001374:	0016869b          	addiw	a3,a3,1
    80001378:	0105083b          	addw	a6,a0,a6
    8000137c:	fcdff06f          	j	80001348 <matrix_add_const+0x8>
    80001380:	00000713          	li	a4,0
    80001384:	fedff06f          	j	80001370 <matrix_add_const+0x30>

0000000080001388 <matrix_mul_vect>:
    80001388:	00000893          	li	a7,0
    8000138c:	00000813          	li	a6,0
    80001390:	00a81463          	bne	a6,a0,80001398 <matrix_mul_vect+0x10>
    80001394:	00008067          	ret
    80001398:	0005a023          	sw	zero,0(a1)
    8000139c:	00000713          	li	a4,0
    800013a0:	0007079b          	sext.w	a5,a4
    800013a4:	00a7ea63          	bltu	a5,a0,800013b8 <matrix_mul_vect+0x30>
    800013a8:	0018081b          	addiw	a6,a6,1
    800013ac:	00458593          	addi	a1,a1,4
    800013b0:	011508bb          	addw	a7,a0,a7
    800013b4:	fddff06f          	j	80001390 <matrix_mul_vect+0x8>
    800013b8:	011787bb          	addw	a5,a5,a7
    800013bc:	02079793          	slli	a5,a5,0x20
    800013c0:	00171313          	slli	t1,a4,0x1
    800013c4:	01f7d793          	srli	a5,a5,0x1f
    800013c8:	00f607b3          	add	a5,a2,a5
    800013cc:	00668333          	add	t1,a3,t1
    800013d0:	00079783          	lh	a5,0(a5)
    800013d4:	00031303          	lh	t1,0(t1)
    800013d8:	00170713          	addi	a4,a4,1
    800013dc:	0267833b          	mulw	t1,a5,t1
    800013e0:	0005a783          	lw	a5,0(a1)
    800013e4:	006787bb          	addw	a5,a5,t1
    800013e8:	00f5a023          	sw	a5,0(a1)
    800013ec:	fb5ff06f          	j	800013a0 <matrix_mul_vect+0x18>

00000000800013f0 <matrix_mul_matrix>:
    800013f0:	00000893          	li	a7,0
    800013f4:	00000e13          	li	t3,0
    800013f8:	06ae1e63          	bne	t3,a0,80001474 <matrix_mul_matrix+0x84>
    800013fc:	00008067          	ret
    80001400:	011807bb          	addw	a5,a6,a7
    80001404:	02079793          	slli	a5,a5,0x20
    80001408:	01e7d793          	srli	a5,a5,0x1e
    8000140c:	00f587b3          	add	a5,a1,a5
    80001410:	0007a023          	sw	zero,0(a5)
    80001414:	00080e93          	mv	t4,a6
    80001418:	00000313          	li	t1,0
    8000141c:	00a31c63          	bne	t1,a0,80001434 <matrix_mul_matrix+0x44>
    80001420:	0018081b          	addiw	a6,a6,1
    80001424:	fca81ee3          	bne	a6,a0,80001400 <matrix_mul_matrix+0x10>
    80001428:	001e0e1b          	addiw	t3,t3,1
    8000142c:	011508bb          	addw	a7,a0,a7
    80001430:	fc9ff06f          	j	800013f8 <matrix_mul_matrix+0x8>
    80001434:	0113073b          	addw	a4,t1,a7
    80001438:	02071713          	slli	a4,a4,0x20
    8000143c:	01f75713          	srli	a4,a4,0x1f
    80001440:	00e60733          	add	a4,a2,a4
    80001444:	00071f03          	lh	t5,0(a4)
    80001448:	020e9713          	slli	a4,t4,0x20
    8000144c:	01f75713          	srli	a4,a4,0x1f
    80001450:	00e68733          	add	a4,a3,a4
    80001454:	00071703          	lh	a4,0(a4)
    80001458:	0013031b          	addiw	t1,t1,1
    8000145c:	01d50ebb          	addw	t4,a0,t4
    80001460:	02ef0f3b          	mulw	t5,t5,a4
    80001464:	0007a703          	lw	a4,0(a5)
    80001468:	01e7073b          	addw	a4,a4,t5
    8000146c:	00e7a023          	sw	a4,0(a5)
    80001470:	fadff06f          	j	8000141c <matrix_mul_matrix+0x2c>
    80001474:	00000813          	li	a6,0
    80001478:	fadff06f          	j	80001424 <matrix_mul_matrix+0x34>

000000008000147c <matrix_mul_matrix_bitextract>:
    8000147c:	00000313          	li	t1,0
    80001480:	00000e93          	li	t4,0
    80001484:	08ae9863          	bne	t4,a0,80001514 <matrix_mul_matrix_bitextract+0x98>
    80001488:	00008067          	ret
    8000148c:	006807bb          	addw	a5,a6,t1
    80001490:	02079793          	slli	a5,a5,0x20
    80001494:	01e7d793          	srli	a5,a5,0x1e
    80001498:	00f587b3          	add	a5,a1,a5
    8000149c:	0007a023          	sw	zero,0(a5)
    800014a0:	00080f13          	mv	t5,a6
    800014a4:	00000e13          	li	t3,0
    800014a8:	00ae1c63          	bne	t3,a0,800014c0 <matrix_mul_matrix_bitextract+0x44>
    800014ac:	0018081b          	addiw	a6,a6,1
    800014b0:	fca81ee3          	bne	a6,a0,8000148c <matrix_mul_matrix_bitextract+0x10>
    800014b4:	001e8e9b          	addiw	t4,t4,1
    800014b8:	0065033b          	addw	t1,a0,t1
    800014bc:	fc9ff06f          	j	80001484 <matrix_mul_matrix_bitextract+0x8>
    800014c0:	006e073b          	addw	a4,t3,t1
    800014c4:	020f1893          	slli	a7,t5,0x20
    800014c8:	02071713          	slli	a4,a4,0x20
    800014cc:	01f75713          	srli	a4,a4,0x1f
    800014d0:	01f8d893          	srli	a7,a7,0x1f
    800014d4:	00e60733          	add	a4,a2,a4
    800014d8:	011688b3          	add	a7,a3,a7
    800014dc:	00089883          	lh	a7,0(a7)
    800014e0:	00071703          	lh	a4,0(a4)
    800014e4:	001e0e1b          	addiw	t3,t3,1
    800014e8:	01e50f3b          	addw	t5,a0,t5
    800014ec:	0317073b          	mulw	a4,a4,a7
    800014f0:	4027589b          	sraiw	a7,a4,0x2
    800014f4:	4057571b          	sraiw	a4,a4,0x5
    800014f8:	00f8f893          	andi	a7,a7,15
    800014fc:	07f77713          	andi	a4,a4,127
    80001500:	02e8873b          	mulw	a4,a7,a4
    80001504:	0007a883          	lw	a7,0(a5)
    80001508:	00e8873b          	addw	a4,a7,a4
    8000150c:	00e7a023          	sw	a4,0(a5)
    80001510:	f99ff06f          	j	800014a8 <matrix_mul_matrix_bitextract+0x2c>
    80001514:	00000813          	li	a6,0
    80001518:	f99ff06f          	j	800014b0 <matrix_mul_matrix_bitextract+0x34>

000000008000151c <matrix_test>:
    8000151c:	fc010113          	addi	sp,sp,-64
    80001520:	03213023          	sd	s2,32(sp)
    80001524:	00060913          	mv	s2,a2
    80001528:	02913423          	sd	s1,40(sp)
    8000152c:	00070613          	mv	a2,a4
    80001530:	01413823          	sd	s4,16(sp)
    80001534:	00058493          	mv	s1,a1
    80001538:	fffffa37          	lui	s4,0xfffff
    8000153c:	00090593          	mv	a1,s2
    80001540:	02113c23          	sd	ra,56(sp)
    80001544:	01476a33          	or	s4,a4,s4
    80001548:	02813823          	sd	s0,48(sp)
    8000154c:	01313c23          	sd	s3,24(sp)
    80001550:	01513423          	sd	s5,8(sp)
    80001554:	00070993          	mv	s3,a4
    80001558:	01613023          	sd	s6,0(sp)
    8000155c:	00050413          	mv	s0,a0
    80001560:	00068a93          	mv	s5,a3
    80001564:	dddff0ef          	jal	ra,80001340 <matrix_add_const>
    80001568:	00098693          	mv	a3,s3
    8000156c:	00090613          	mv	a2,s2
    80001570:	00048593          	mv	a1,s1
    80001574:	00040513          	mv	a0,s0
    80001578:	d75ff0ef          	jal	ra,800012ec <matrix_mul_const>
    8000157c:	000a0613          	mv	a2,s4
    80001580:	00048593          	mv	a1,s1
    80001584:	00040513          	mv	a0,s0
    80001588:	cddff0ef          	jal	ra,80001264 <matrix_sum>
    8000158c:	00000593          	li	a1,0
    80001590:	7b8000ef          	jal	ra,80001d48 <crc16>
    80001594:	000a8693          	mv	a3,s5
    80001598:	00050b13          	mv	s6,a0
    8000159c:	00090613          	mv	a2,s2
    800015a0:	00048593          	mv	a1,s1
    800015a4:	00040513          	mv	a0,s0
    800015a8:	de1ff0ef          	jal	ra,80001388 <matrix_mul_vect>
    800015ac:	000a0613          	mv	a2,s4
    800015b0:	00048593          	mv	a1,s1
    800015b4:	00040513          	mv	a0,s0
    800015b8:	cadff0ef          	jal	ra,80001264 <matrix_sum>
    800015bc:	000b0593          	mv	a1,s6
    800015c0:	788000ef          	jal	ra,80001d48 <crc16>
    800015c4:	000a8693          	mv	a3,s5
    800015c8:	00050b13          	mv	s6,a0
    800015cc:	00090613          	mv	a2,s2
    800015d0:	00048593          	mv	a1,s1
    800015d4:	00040513          	mv	a0,s0
    800015d8:	e19ff0ef          	jal	ra,800013f0 <matrix_mul_matrix>
    800015dc:	000a0613          	mv	a2,s4
    800015e0:	00048593          	mv	a1,s1
    800015e4:	00040513          	mv	a0,s0
    800015e8:	c7dff0ef          	jal	ra,80001264 <matrix_sum>
    800015ec:	000b0593          	mv	a1,s6
    800015f0:	758000ef          	jal	ra,80001d48 <crc16>
    800015f4:	000a8693          	mv	a3,s5
    800015f8:	00050b13          	mv	s6,a0
    800015fc:	00090613          	mv	a2,s2
    80001600:	00048593          	mv	a1,s1
    80001604:	00040513          	mv	a0,s0
    80001608:	e75ff0ef          	jal	ra,8000147c <matrix_mul_matrix_bitextract>
    8000160c:	000a0613          	mv	a2,s4
    80001610:	00048593          	mv	a1,s1
    80001614:	00040513          	mv	a0,s0
    80001618:	c4dff0ef          	jal	ra,80001264 <matrix_sum>
    8000161c:	000b0593          	mv	a1,s6
    80001620:	728000ef          	jal	ra,80001d48 <crc16>
    80001624:	4130063b          	negw	a2,s3
    80001628:	0106161b          	slliw	a2,a2,0x10
    8000162c:	00050493          	mv	s1,a0
    80001630:	00090593          	mv	a1,s2
    80001634:	00040513          	mv	a0,s0
    80001638:	4106561b          	sraiw	a2,a2,0x10
    8000163c:	d05ff0ef          	jal	ra,80001340 <matrix_add_const>
    80001640:	03813083          	ld	ra,56(sp)
    80001644:	03013403          	ld	s0,48(sp)
    80001648:	0104951b          	slliw	a0,s1,0x10
    8000164c:	02013903          	ld	s2,32(sp)
    80001650:	02813483          	ld	s1,40(sp)
    80001654:	01813983          	ld	s3,24(sp)
    80001658:	01013a03          	ld	s4,16(sp)
    8000165c:	00813a83          	ld	s5,8(sp)
    80001660:	00013b03          	ld	s6,0(sp)
    80001664:	4105551b          	sraiw	a0,a0,0x10
    80001668:	04010113          	addi	sp,sp,64
    8000166c:	00008067          	ret

0000000080001670 <core_bench_matrix>:
    80001670:	ff010113          	addi	sp,sp,-16
    80001674:	00813023          	sd	s0,0(sp)
    80001678:	01053683          	ld	a3,16(a0)
    8000167c:	00060413          	mv	s0,a2
    80001680:	00058713          	mv	a4,a1
    80001684:	00853603          	ld	a2,8(a0)
    80001688:	01853583          	ld	a1,24(a0)
    8000168c:	00052503          	lw	a0,0(a0)
    80001690:	00113423          	sd	ra,8(sp)
    80001694:	e89ff0ef          	jal	ra,8000151c <matrix_test>
    80001698:	00040593          	mv	a1,s0
    8000169c:	00013403          	ld	s0,0(sp)
    800016a0:	00813083          	ld	ra,8(sp)
    800016a4:	01010113          	addi	sp,sp,16
    800016a8:	6a00006f          	j	80001d48 <crc16>

00000000800016ac <start_time>:
    800016ac:	ff010113          	addi	sp,sp,-16
    800016b0:	00113423          	sd	ra,8(sp)
    800016b4:	14d060ef          	jal	ra,80008000 <uptime>
    800016b8:	00813083          	ld	ra,8(sp)
    800016bc:	02051513          	slli	a0,a0,0x20
    800016c0:	02055513          	srli	a0,a0,0x20
    800016c4:	0001a797          	auipc	a5,0x1a
    800016c8:	1ca7b623          	sd	a0,460(a5) # 8001b890 <start_time_val>
    800016cc:	01010113          	addi	sp,sp,16
    800016d0:	00008067          	ret

00000000800016d4 <stop_time>:
    800016d4:	ff010113          	addi	sp,sp,-16
    800016d8:	00113423          	sd	ra,8(sp)
    800016dc:	125060ef          	jal	ra,80008000 <uptime>
    800016e0:	00813083          	ld	ra,8(sp)
    800016e4:	02051513          	slli	a0,a0,0x20
    800016e8:	02055513          	srli	a0,a0,0x20
    800016ec:	0001a797          	auipc	a5,0x1a
    800016f0:	1aa7b623          	sd	a0,428(a5) # 8001b898 <stop_time_val>
    800016f4:	01010113          	addi	sp,sp,16
    800016f8:	00008067          	ret

00000000800016fc <get_time>:
    800016fc:	0001a517          	auipc	a0,0x1a
    80001700:	19c53503          	ld	a0,412(a0) # 8001b898 <stop_time_val>
    80001704:	0001a797          	auipc	a5,0x1a
    80001708:	18c7b783          	ld	a5,396(a5) # 8001b890 <start_time_val>
    8000170c:	40f5053b          	subw	a0,a0,a5
    80001710:	00008067          	ret

0000000080001714 <time_in_secs>:
    80001714:	00008067          	ret

0000000080001718 <portable_init>:
    80001718:	00100793          	li	a5,1
    8000171c:	00f50023          	sb	a5,0(a0)
    80001720:	00008067          	ret

0000000080001724 <portable_fini>:
    80001724:	00050023          	sb	zero,0(a0)
    80001728:	00008067          	ret

000000008000172c <core_init_state>:
    8000172c:	0015859b          	addiw	a1,a1,1
    80001730:	03059593          	slli	a1,a1,0x30
    80001734:	fff50e9b          	addiw	t4,a0,-1
    80001738:	0305d593          	srli	a1,a1,0x30
    8000173c:	00000693          	li	a3,0
    80001740:	00000713          	li	a4,0
    80001744:	00000793          	li	a5,0
    80001748:	02c00f13          	li	t5,44
    8000174c:	00700f93          	li	t6,7
    80001750:	0000b317          	auipc	t1,0xb
    80001754:	e2830313          	addi	t1,t1,-472 # 8000c578 <intpat>
    80001758:	00400293          	li	t0,4
    8000175c:	00100393          	li	t2,1
    80001760:	00e788bb          	addw	a7,a5,a4
    80001764:	0018889b          	addiw	a7,a7,1
    80001768:	0fd8e663          	bltu	a7,t4,80001854 <core_init_state+0x128>
    8000176c:	02079713          	slli	a4,a5,0x20
    80001770:	02075713          	srli	a4,a4,0x20
    80001774:	00e60633          	add	a2,a2,a4
    80001778:	14a7e063          	bltu	a5,a0,800018b8 <core_init_state+0x18c>
    8000177c:	00008067          	ret
    80001780:	04070063          	beqz	a4,800017c0 <core_init_state+0x94>
    80001784:	02079793          	slli	a5,a5,0x20
    80001788:	00000813          	li	a6,0
    8000178c:	0207d793          	srli	a5,a5,0x20
    80001790:	01068e33          	add	t3,a3,a6
    80001794:	000e4403          	lbu	s0,0(t3)
    80001798:	01078e33          	add	t3,a5,a6
    8000179c:	01c60e33          	add	t3,a2,t3
    800017a0:	00180813          	addi	a6,a6,1
    800017a4:	008e0023          	sb	s0,0(t3)
    800017a8:	00080e1b          	sext.w	t3,a6
    800017ac:	feee62e3          	bltu	t3,a4,80001790 <core_init_state+0x64>
    800017b0:	00f607b3          	add	a5,a2,a5
    800017b4:	00e787b3          	add	a5,a5,a4
    800017b8:	01e78023          	sb	t5,0(a5)
    800017bc:	00088793          	mv	a5,a7
    800017c0:	0075f693          	andi	a3,a1,7
    800017c4:	0185f713          	andi	a4,a1,24
    800017c8:	07f68863          	beq	a3,t6,80001838 <core_init_state+0x10c>
    800017cc:	06d2e063          	bltu	t0,a3,8000182c <core_init_state+0x100>
    800017d0:	ffd6869b          	addiw	a3,a3,-3
    800017d4:	03069693          	slli	a3,a3,0x30
    800017d8:	0306d693          	srli	a3,a3,0x30
    800017dc:	00e30733          	add	a4,t1,a4
    800017e0:	04d3f063          	bgeu	t2,a3,80001820 <core_init_state+0xf4>
    800017e4:	00073683          	ld	a3,0(a4)
    800017e8:	00400713          	li	a4,4
    800017ec:	0015859b          	addiw	a1,a1,1
    800017f0:	00e788bb          	addw	a7,a5,a4
    800017f4:	03059593          	slli	a1,a1,0x30
    800017f8:	0018889b          	addiw	a7,a7,1
    800017fc:	0305d593          	srli	a1,a1,0x30
    80001800:	f9d8e0e3          	bltu	a7,t4,80001780 <core_init_state+0x54>
    80001804:	02079713          	slli	a4,a5,0x20
    80001808:	02075713          	srli	a4,a4,0x20
    8000180c:	00e60633          	add	a2,a2,a4
    80001810:	02a7ea63          	bltu	a5,a0,80001844 <core_init_state+0x118>
    80001814:	00813403          	ld	s0,8(sp)
    80001818:	01010113          	addi	sp,sp,16
    8000181c:	00008067          	ret
    80001820:	02073683          	ld	a3,32(a4)
    80001824:	00800713          	li	a4,8
    80001828:	fc5ff06f          	j	800017ec <core_init_state+0xc0>
    8000182c:	00e30733          	add	a4,t1,a4
    80001830:	04073683          	ld	a3,64(a4)
    80001834:	ff1ff06f          	j	80001824 <core_init_state+0xf8>
    80001838:	00e30733          	add	a4,t1,a4
    8000183c:	06073683          	ld	a3,96(a4)
    80001840:	fe5ff06f          	j	80001824 <core_init_state+0xf8>
    80001844:	00060023          	sb	zero,0(a2)
    80001848:	0017879b          	addiw	a5,a5,1
    8000184c:	00160613          	addi	a2,a2,1
    80001850:	fc1ff06f          	j	80001810 <core_init_state+0xe4>
    80001854:	06071a63          	bnez	a4,800018c8 <core_init_state+0x19c>
    80001858:	0075f693          	andi	a3,a1,7
    8000185c:	0185f713          	andi	a4,a1,24
    80001860:	05f68663          	beq	a3,t6,800018ac <core_init_state+0x180>
    80001864:	02d2ee63          	bltu	t0,a3,800018a0 <core_init_state+0x174>
    80001868:	ffd6869b          	addiw	a3,a3,-3
    8000186c:	03069693          	slli	a3,a3,0x30
    80001870:	0306d693          	srli	a3,a3,0x30
    80001874:	00e30733          	add	a4,t1,a4
    80001878:	00d3fe63          	bgeu	t2,a3,80001894 <core_init_state+0x168>
    8000187c:	00073683          	ld	a3,0(a4)
    80001880:	00400713          	li	a4,4
    80001884:	0015859b          	addiw	a1,a1,1
    80001888:	03059593          	slli	a1,a1,0x30
    8000188c:	0305d593          	srli	a1,a1,0x30
    80001890:	ed1ff06f          	j	80001760 <core_init_state+0x34>
    80001894:	02073683          	ld	a3,32(a4)
    80001898:	00800713          	li	a4,8
    8000189c:	fe9ff06f          	j	80001884 <core_init_state+0x158>
    800018a0:	00e30733          	add	a4,t1,a4
    800018a4:	04073683          	ld	a3,64(a4)
    800018a8:	ff1ff06f          	j	80001898 <core_init_state+0x16c>
    800018ac:	00e30733          	add	a4,t1,a4
    800018b0:	06073683          	ld	a3,96(a4)
    800018b4:	fe5ff06f          	j	80001898 <core_init_state+0x16c>
    800018b8:	00060023          	sb	zero,0(a2)
    800018bc:	0017879b          	addiw	a5,a5,1
    800018c0:	00160613          	addi	a2,a2,1
    800018c4:	eb5ff06f          	j	80001778 <core_init_state+0x4c>
    800018c8:	ff010113          	addi	sp,sp,-16
    800018cc:	00813423          	sd	s0,8(sp)
    800018d0:	eb5ff06f          	j	80001784 <core_init_state+0x58>

00000000800018d4 <core_state_transition>:
    800018d4:	00053703          	ld	a4,0(a0)
    800018d8:	00050813          	mv	a6,a0
    800018dc:	00100e13          	li	t3,1
    800018e0:	00000513          	li	a0,0
    800018e4:	02c00e93          	li	t4,44
    800018e8:	00700f13          	li	t5,7
    800018ec:	0000b317          	auipc	t1,0xb
    800018f0:	c6c30313          	addi	t1,t1,-916 # 8000c558 <state_known_crc+0x10>
    800018f4:	00900613          	li	a2,9
    800018f8:	04500f93          	li	t6,69
    800018fc:	02e00893          	li	a7,46
    80001900:	00074783          	lbu	a5,0(a4)
    80001904:	00078463          	beqz	a5,8000190c <core_state_transition+0x38>
    80001908:	01c51663          	bne	a0,t3,80001914 <core_state_transition+0x40>
    8000190c:	00e83023          	sd	a4,0(a6)
    80001910:	00008067          	ret
    80001914:	00170713          	addi	a4,a4,1
    80001918:	ffd78ae3          	beq	a5,t4,8000190c <core_state_transition+0x38>
    8000191c:	feaf62e3          	bltu	t5,a0,80001900 <core_state_transition+0x2c>
    80001920:	00251693          	slli	a3,a0,0x2
    80001924:	006686b3          	add	a3,a3,t1
    80001928:	0006a683          	lw	a3,0(a3)
    8000192c:	006686b3          	add	a3,a3,t1
    80001930:	00068067          	jr	a3
    80001934:	fd07869b          	addiw	a3,a5,-48
    80001938:	0ff6f693          	andi	a3,a3,255
    8000193c:	00400513          	li	a0,4
    80001940:	02d67663          	bgeu	a2,a3,8000196c <core_state_transition+0x98>
    80001944:	fd57869b          	addiw	a3,a5,-43
    80001948:	0fd6f693          	andi	a3,a3,253
    8000194c:	00200513          	li	a0,2
    80001950:	00068e63          	beqz	a3,8000196c <core_state_transition+0x98>
    80001954:	00500513          	li	a0,5
    80001958:	01178a63          	beq	a5,a7,8000196c <core_state_transition+0x98>
    8000195c:	0045a783          	lw	a5,4(a1)
    80001960:	00100513          	li	a0,1
    80001964:	0017879b          	addiw	a5,a5,1
    80001968:	00f5a223          	sw	a5,4(a1)
    8000196c:	0005a783          	lw	a5,0(a1)
    80001970:	0017879b          	addiw	a5,a5,1
    80001974:	00f5a023          	sw	a5,0(a1)
    80001978:	f89ff06f          	j	80001900 <core_state_transition+0x2c>
    8000197c:	0085a683          	lw	a3,8(a1)
    80001980:	fd07851b          	addiw	a0,a5,-48
    80001984:	0ff57513          	andi	a0,a0,255
    80001988:	0016869b          	addiw	a3,a3,1
    8000198c:	00a67a63          	bgeu	a2,a0,800019a0 <core_state_transition+0xcc>
    80001990:	01179e63          	bne	a5,a7,800019ac <core_state_transition+0xd8>
    80001994:	00d5a423          	sw	a3,8(a1)
    80001998:	00500513          	li	a0,5
    8000199c:	f65ff06f          	j	80001900 <core_state_transition+0x2c>
    800019a0:	00d5a423          	sw	a3,8(a1)
    800019a4:	00400513          	li	a0,4
    800019a8:	f59ff06f          	j	80001900 <core_state_transition+0x2c>
    800019ac:	00d5a423          	sw	a3,8(a1)
    800019b0:	00100513          	li	a0,1
    800019b4:	f4dff06f          	j	80001900 <core_state_transition+0x2c>
    800019b8:	01179a63          	bne	a5,a7,800019cc <core_state_transition+0xf8>
    800019bc:	0105a783          	lw	a5,16(a1)
    800019c0:	0017879b          	addiw	a5,a5,1
    800019c4:	00f5a823          	sw	a5,16(a1)
    800019c8:	fd1ff06f          	j	80001998 <core_state_transition+0xc4>
    800019cc:	fd07879b          	addiw	a5,a5,-48
    800019d0:	0ff7f793          	andi	a5,a5,255
    800019d4:	f2f676e3          	bgeu	a2,a5,80001900 <core_state_transition+0x2c>
    800019d8:	0105a783          	lw	a5,16(a1)
    800019dc:	0017879b          	addiw	a5,a5,1
    800019e0:	00f5a823          	sw	a5,16(a1)
    800019e4:	fcdff06f          	j	800019b0 <core_state_transition+0xdc>
    800019e8:	0df7f693          	andi	a3,a5,223
    800019ec:	01f69c63          	bne	a3,t6,80001a04 <core_state_transition+0x130>
    800019f0:	0145a783          	lw	a5,20(a1)
    800019f4:	00300513          	li	a0,3
    800019f8:	0017879b          	addiw	a5,a5,1
    800019fc:	00f5aa23          	sw	a5,20(a1)
    80001a00:	f01ff06f          	j	80001900 <core_state_transition+0x2c>
    80001a04:	fd07879b          	addiw	a5,a5,-48
    80001a08:	0ff7f793          	andi	a5,a5,255
    80001a0c:	eef67ae3          	bgeu	a2,a5,80001900 <core_state_transition+0x2c>
    80001a10:	0145a783          	lw	a5,20(a1)
    80001a14:	0017879b          	addiw	a5,a5,1
    80001a18:	00f5aa23          	sw	a5,20(a1)
    80001a1c:	f95ff06f          	j	800019b0 <core_state_transition+0xdc>
    80001a20:	00c5a683          	lw	a3,12(a1)
    80001a24:	fd57879b          	addiw	a5,a5,-43
    80001a28:	0fd7f793          	andi	a5,a5,253
    80001a2c:	0016869b          	addiw	a3,a3,1
    80001a30:	00d5a623          	sw	a3,12(a1)
    80001a34:	00600513          	li	a0,6
    80001a38:	f6079ce3          	bnez	a5,800019b0 <core_state_transition+0xdc>
    80001a3c:	ec5ff06f          	j	80001900 <core_state_transition+0x2c>
    80001a40:	0185a683          	lw	a3,24(a1)
    80001a44:	fd07879b          	addiw	a5,a5,-48
    80001a48:	0ff7f793          	andi	a5,a5,255
    80001a4c:	0016869b          	addiw	a3,a3,1
    80001a50:	00d5ac23          	sw	a3,24(a1)
    80001a54:	00700513          	li	a0,7
    80001a58:	eaf674e3          	bgeu	a2,a5,80001900 <core_state_transition+0x2c>
    80001a5c:	f55ff06f          	j	800019b0 <core_state_transition+0xdc>
    80001a60:	fd07879b          	addiw	a5,a5,-48
    80001a64:	0ff7f793          	andi	a5,a5,255
    80001a68:	e8f67ce3          	bgeu	a2,a5,80001900 <core_state_transition+0x2c>
    80001a6c:	0045a783          	lw	a5,4(a1)
    80001a70:	0017879b          	addiw	a5,a5,1
    80001a74:	00f5a223          	sw	a5,4(a1)
    80001a78:	f39ff06f          	j	800019b0 <core_state_transition+0xdc>

0000000080001a7c <core_bench_state>:
    80001a7c:	f7010113          	addi	sp,sp,-144
    80001a80:	08813023          	sd	s0,128(sp)
    80001a84:	06913c23          	sd	s1,120(sp)
    80001a88:	07213823          	sd	s2,112(sp)
    80001a8c:	07313423          	sd	s3,104(sp)
    80001a90:	07413023          	sd	s4,96(sp)
    80001a94:	05513c23          	sd	s5,88(sp)
    80001a98:	00070913          	mv	s2,a4
    80001a9c:	00078493          	mv	s1,a5
    80001aa0:	08113423          	sd	ra,136(sp)
    80001aa4:	00050413          	mv	s0,a0
    80001aa8:	00058a13          	mv	s4,a1
    80001aac:	00060a93          	mv	s5,a2
    80001ab0:	00068993          	mv	s3,a3
    80001ab4:	00b13423          	sd	a1,8(sp)
    80001ab8:	00000793          	li	a5,0
    80001abc:	02000713          	li	a4,32
    80001ac0:	03010693          	addi	a3,sp,48
    80001ac4:	00f686b3          	add	a3,a3,a5
    80001ac8:	0006a023          	sw	zero,0(a3)
    80001acc:	01010693          	addi	a3,sp,16
    80001ad0:	00f686b3          	add	a3,a3,a5
    80001ad4:	0006a023          	sw	zero,0(a3)
    80001ad8:	00478793          	addi	a5,a5,4
    80001adc:	fee792e3          	bne	a5,a4,80001ac0 <core_bench_state+0x44>
    80001ae0:	00813783          	ld	a5,8(sp)
    80001ae4:	0007c783          	lbu	a5,0(a5)
    80001ae8:	0a079063          	bnez	a5,80001b88 <core_bench_state+0x10c>
    80001aec:	02041413          	slli	s0,s0,0x20
    80001af0:	02045413          	srli	s0,s0,0x20
    80001af4:	01413423          	sd	s4,8(sp)
    80001af8:	008a0433          	add	s0,s4,s0
    80001afc:	02c00693          	li	a3,44
    80001b00:	00813703          	ld	a4,8(sp)
    80001b04:	0a876863          	bltu	a4,s0,80001bb4 <core_bench_state+0x138>
    80001b08:	01413423          	sd	s4,8(sp)
    80001b0c:	00813783          	ld	a5,8(sp)
    80001b10:	0007c783          	lbu	a5,0(a5)
    80001b14:	0c079063          	bnez	a5,80001bd4 <core_bench_state+0x158>
    80001b18:	01413423          	sd	s4,8(sp)
    80001b1c:	02c00693          	li	a3,44
    80001b20:	00813703          	ld	a4,8(sp)
    80001b24:	0c876e63          	bltu	a4,s0,80001c00 <core_bench_state+0x184>
    80001b28:	00000413          	li	s0,0
    80001b2c:	02000913          	li	s2,32
    80001b30:	01010793          	addi	a5,sp,16
    80001b34:	008787b3          	add	a5,a5,s0
    80001b38:	0007a503          	lw	a0,0(a5)
    80001b3c:	00048593          	mv	a1,s1
    80001b40:	1d4000ef          	jal	ra,80001d14 <crcu32>
    80001b44:	03010793          	addi	a5,sp,48
    80001b48:	008787b3          	add	a5,a5,s0
    80001b4c:	00050593          	mv	a1,a0
    80001b50:	0007a503          	lw	a0,0(a5)
    80001b54:	00440413          	addi	s0,s0,4 # 10004 <_start-0x7ffefffc>
    80001b58:	1bc000ef          	jal	ra,80001d14 <crcu32>
    80001b5c:	00050493          	mv	s1,a0
    80001b60:	fd2418e3          	bne	s0,s2,80001b30 <core_bench_state+0xb4>
    80001b64:	08813083          	ld	ra,136(sp)
    80001b68:	08013403          	ld	s0,128(sp)
    80001b6c:	07813483          	ld	s1,120(sp)
    80001b70:	07013903          	ld	s2,112(sp)
    80001b74:	06813983          	ld	s3,104(sp)
    80001b78:	06013a03          	ld	s4,96(sp)
    80001b7c:	05813a83          	ld	s5,88(sp)
    80001b80:	09010113          	addi	sp,sp,144
    80001b84:	00008067          	ret
    80001b88:	03010593          	addi	a1,sp,48
    80001b8c:	00810513          	addi	a0,sp,8
    80001b90:	d45ff0ef          	jal	ra,800018d4 <core_state_transition>
    80001b94:	02051813          	slli	a6,a0,0x20
    80001b98:	05010793          	addi	a5,sp,80
    80001b9c:	01e85813          	srli	a6,a6,0x1e
    80001ba0:	01078833          	add	a6,a5,a6
    80001ba4:	fc082783          	lw	a5,-64(a6)
    80001ba8:	0017879b          	addiw	a5,a5,1
    80001bac:	fcf82023          	sw	a5,-64(a6)
    80001bb0:	f31ff06f          	j	80001ae0 <core_bench_state+0x64>
    80001bb4:	00074783          	lbu	a5,0(a4)
    80001bb8:	00d78663          	beq	a5,a3,80001bc4 <core_bench_state+0x148>
    80001bbc:	0157c7b3          	xor	a5,a5,s5
    80001bc0:	00f70023          	sb	a5,0(a4)
    80001bc4:	00813783          	ld	a5,8(sp)
    80001bc8:	012787b3          	add	a5,a5,s2
    80001bcc:	00f13423          	sd	a5,8(sp)
    80001bd0:	f31ff06f          	j	80001b00 <core_bench_state+0x84>
    80001bd4:	03010593          	addi	a1,sp,48
    80001bd8:	00810513          	addi	a0,sp,8
    80001bdc:	cf9ff0ef          	jal	ra,800018d4 <core_state_transition>
    80001be0:	02051613          	slli	a2,a0,0x20
    80001be4:	05010793          	addi	a5,sp,80
    80001be8:	01e65613          	srli	a2,a2,0x1e
    80001bec:	00c78633          	add	a2,a5,a2
    80001bf0:	fc062783          	lw	a5,-64(a2)
    80001bf4:	0017879b          	addiw	a5,a5,1
    80001bf8:	fcf62023          	sw	a5,-64(a2)
    80001bfc:	f11ff06f          	j	80001b0c <core_bench_state+0x90>
    80001c00:	00074783          	lbu	a5,0(a4)
    80001c04:	00d78663          	beq	a5,a3,80001c10 <core_bench_state+0x194>
    80001c08:	0137c7b3          	xor	a5,a5,s3
    80001c0c:	00f70023          	sb	a5,0(a4)
    80001c10:	00813783          	ld	a5,8(sp)
    80001c14:	012787b3          	add	a5,a5,s2
    80001c18:	00f13423          	sd	a5,8(sp)
    80001c1c:	f05ff06f          	j	80001b20 <core_bench_state+0xa4>

0000000080001c20 <get_seed_32>:
    80001c20:	fff5051b          	addiw	a0,a0,-1
    80001c24:	0005071b          	sext.w	a4,a0
    80001c28:	00400793          	li	a5,4
    80001c2c:	06e7e063          	bltu	a5,a4,80001c8c <get_seed_32+0x6c>
    80001c30:	02051513          	slli	a0,a0,0x20
    80001c34:	0000b717          	auipc	a4,0xb
    80001c38:	aa470713          	addi	a4,a4,-1372 # 8000c6d8 <errpat+0x100>
    80001c3c:	01e55513          	srli	a0,a0,0x1e
    80001c40:	00e50533          	add	a0,a0,a4
    80001c44:	00052783          	lw	a5,0(a0)
    80001c48:	00e787b3          	add	a5,a5,a4
    80001c4c:	00078067          	jr	a5
    80001c50:	0001a517          	auipc	a0,0x1a
    80001c54:	bd052503          	lw	a0,-1072(a0) # 8001b820 <seed1_volatile>
    80001c58:	00008067          	ret
    80001c5c:	0001a517          	auipc	a0,0x1a
    80001c60:	bc052503          	lw	a0,-1088(a0) # 8001b81c <seed2_volatile>
    80001c64:	00008067          	ret
    80001c68:	0001a517          	auipc	a0,0x1a
    80001c6c:	c0052503          	lw	a0,-1024(a0) # 8001b868 <seed3_volatile>
    80001c70:	00008067          	ret
    80001c74:	0001a517          	auipc	a0,0x1a
    80001c78:	bf052503          	lw	a0,-1040(a0) # 8001b864 <seed4_volatile>
    80001c7c:	00008067          	ret
    80001c80:	0001a517          	auipc	a0,0x1a
    80001c84:	b9852503          	lw	a0,-1128(a0) # 8001b818 <seed5_volatile>
    80001c88:	00008067          	ret
    80001c8c:	00000513          	li	a0,0
    80001c90:	00008067          	ret

0000000080001c94 <crcu8>:
    80001c94:	00004637          	lui	a2,0x4
    80001c98:	00050713          	mv	a4,a0
    80001c9c:	00800793          	li	a5,8
    80001ca0:	00058513          	mv	a0,a1
    80001ca4:	00260613          	addi	a2,a2,2 # 4002 <_start-0x7fffbffe>
    80001ca8:	ffff8837          	lui	a6,0xffff8
    80001cac:	00e546b3          	xor	a3,a0,a4
    80001cb0:	0016f693          	andi	a3,a3,1
    80001cb4:	00175713          	srli	a4,a4,0x1
    80001cb8:	00068463          	beqz	a3,80001cc0 <crcu8+0x2c>
    80001cbc:	00c54533          	xor	a0,a0,a2
    80001cc0:	00155513          	srli	a0,a0,0x1
    80001cc4:	00068863          	beqz	a3,80001cd4 <crcu8+0x40>
    80001cc8:	010565b3          	or	a1,a0,a6
    80001ccc:	03059513          	slli	a0,a1,0x30
    80001cd0:	03055513          	srli	a0,a0,0x30
    80001cd4:	fff7879b          	addiw	a5,a5,-1
    80001cd8:	0ff7f793          	andi	a5,a5,255
    80001cdc:	fc0798e3          	bnez	a5,80001cac <crcu8+0x18>
    80001ce0:	00008067          	ret

0000000080001ce4 <crcu16>:
    80001ce4:	ff010113          	addi	sp,sp,-16
    80001ce8:	00813023          	sd	s0,0(sp)
    80001cec:	00050413          	mv	s0,a0
    80001cf0:	0ff57513          	andi	a0,a0,255
    80001cf4:	00113423          	sd	ra,8(sp)
    80001cf8:	f9dff0ef          	jal	ra,80001c94 <crcu8>
    80001cfc:	00050593          	mv	a1,a0
    80001d00:	00845513          	srli	a0,s0,0x8
    80001d04:	00013403          	ld	s0,0(sp)
    80001d08:	00813083          	ld	ra,8(sp)
    80001d0c:	01010113          	addi	sp,sp,16
    80001d10:	f85ff06f          	j	80001c94 <crcu8>

0000000080001d14 <crcu32>:
    80001d14:	ff010113          	addi	sp,sp,-16
    80001d18:	00813023          	sd	s0,0(sp)
    80001d1c:	00050413          	mv	s0,a0
    80001d20:	03051513          	slli	a0,a0,0x30
    80001d24:	03055513          	srli	a0,a0,0x30
    80001d28:	00113423          	sd	ra,8(sp)
    80001d2c:	fb9ff0ef          	jal	ra,80001ce4 <crcu16>
    80001d30:	00050593          	mv	a1,a0
    80001d34:	0104551b          	srliw	a0,s0,0x10
    80001d38:	00013403          	ld	s0,0(sp)
    80001d3c:	00813083          	ld	ra,8(sp)
    80001d40:	01010113          	addi	sp,sp,16
    80001d44:	fa1ff06f          	j	80001ce4 <crcu16>

0000000080001d48 <crc16>:
    80001d48:	03051513          	slli	a0,a0,0x30
    80001d4c:	03055513          	srli	a0,a0,0x30
    80001d50:	f95ff06f          	j	80001ce4 <crcu16>

0000000080001d54 <check_data_types>:
    80001d54:	00000513          	li	a0,0
    80001d58:	00008067          	ret

0000000080001d5c <Proc_2>:
    80001d5c:	0001a717          	auipc	a4,0x1a
    80001d60:	d0074703          	lbu	a4,-768(a4) # 8001ba5c <Ch_1_Glob>
    80001d64:	04100793          	li	a5,65
    80001d68:	00f71e63          	bne	a4,a5,80001d84 <Proc_2+0x28>
    80001d6c:	00052783          	lw	a5,0(a0)
    80001d70:	0001a717          	auipc	a4,0x1a
    80001d74:	ce872703          	lw	a4,-792(a4) # 8001ba58 <Int_Glob>
    80001d78:	0097879b          	addiw	a5,a5,9
    80001d7c:	40e787bb          	subw	a5,a5,a4
    80001d80:	00f52023          	sw	a5,0(a0)
    80001d84:	00008067          	ret

0000000080001d88 <Proc_3>:
    80001d88:	0001a797          	auipc	a5,0x1a
    80001d8c:	cd878793          	addi	a5,a5,-808 # 8001ba60 <Ptr_Glob>
    80001d90:	0007b703          	ld	a4,0(a5)
    80001d94:	00070663          	beqz	a4,80001da0 <Proc_3+0x18>
    80001d98:	00073703          	ld	a4,0(a4)
    80001d9c:	00e53023          	sd	a4,0(a0)
    80001da0:	0007b703          	ld	a4,0(a5)
    80001da4:	0001a797          	auipc	a5,0x1a
    80001da8:	cb47a783          	lw	a5,-844(a5) # 8001ba58 <Int_Glob>
    80001dac:	00c7879b          	addiw	a5,a5,12
    80001db0:	00f72823          	sw	a5,16(a4)
    80001db4:	00008067          	ret

0000000080001db8 <Proc_4>:
    80001db8:	0001a717          	auipc	a4,0x1a
    80001dbc:	d8070713          	addi	a4,a4,-640 # 8001bb38 <Bool_Glob>
    80001dc0:	00072683          	lw	a3,0(a4)
    80001dc4:	0001a797          	auipc	a5,0x1a
    80001dc8:	c987c783          	lbu	a5,-872(a5) # 8001ba5c <Ch_1_Glob>
    80001dcc:	fbf78793          	addi	a5,a5,-65
    80001dd0:	0017b793          	seqz	a5,a5
    80001dd4:	00d7e7b3          	or	a5,a5,a3
    80001dd8:	00f72023          	sw	a5,0(a4)
    80001ddc:	04200793          	li	a5,66
    80001de0:	0001a717          	auipc	a4,0x1a
    80001de4:	c6f70ea3          	sb	a5,-899(a4) # 8001ba5d <Ch_2_Glob>
    80001de8:	00008067          	ret

0000000080001dec <Proc_5>:
    80001dec:	04100793          	li	a5,65
    80001df0:	0001a717          	auipc	a4,0x1a
    80001df4:	c6f70623          	sb	a5,-916(a4) # 8001ba5c <Ch_1_Glob>
    80001df8:	0001a797          	auipc	a5,0x1a
    80001dfc:	d407a023          	sw	zero,-704(a5) # 8001bb38 <Bool_Glob>
    80001e00:	00008067          	ret

0000000080001e04 <Proc_6>:
    80001e04:	00200793          	li	a5,2
    80001e08:	02f50e63          	beq	a0,a5,80001e44 <Proc_6+0x40>
    80001e0c:	00300713          	li	a4,3
    80001e10:	00e5a023          	sw	a4,0(a1)
    80001e14:	00100713          	li	a4,1
    80001e18:	00e50a63          	beq	a0,a4,80001e2c <Proc_6+0x28>
    80001e1c:	02a77063          	bgeu	a4,a0,80001e3c <Proc_6+0x38>
    80001e20:	00400713          	li	a4,4
    80001e24:	02e50263          	beq	a0,a4,80001e48 <Proc_6+0x44>
    80001e28:	00008067          	ret
    80001e2c:	0001a717          	auipc	a4,0x1a
    80001e30:	c2c72703          	lw	a4,-980(a4) # 8001ba58 <Int_Glob>
    80001e34:	06400793          	li	a5,100
    80001e38:	00e7da63          	bge	a5,a4,80001e4c <Proc_6+0x48>
    80001e3c:	0005a023          	sw	zero,0(a1)
    80001e40:	00008067          	ret
    80001e44:	00100793          	li	a5,1
    80001e48:	00f5a023          	sw	a5,0(a1)
    80001e4c:	00008067          	ret

0000000080001e50 <Proc_1>:
    80001e50:	fe010113          	addi	sp,sp,-32
    80001e54:	00813823          	sd	s0,16(sp)
    80001e58:	01213023          	sd	s2,0(sp)
    80001e5c:	00053403          	ld	s0,0(a0)
    80001e60:	0001a917          	auipc	s2,0x1a
    80001e64:	c0090913          	addi	s2,s2,-1024 # 8001ba60 <Ptr_Glob>
    80001e68:	00093583          	ld	a1,0(s2)
    80001e6c:	00913423          	sd	s1,8(sp)
    80001e70:	03800613          	li	a2,56
    80001e74:	00050493          	mv	s1,a0
    80001e78:	00040513          	mv	a0,s0
    80001e7c:	00113c23          	sd	ra,24(sp)
    80001e80:	0d5070ef          	jal	ra,80009754 <memcpy>
    80001e84:	00500793          	li	a5,5
    80001e88:	00f4a823          	sw	a5,16(s1)
    80001e8c:	00f42823          	sw	a5,16(s0)
    80001e90:	0004b783          	ld	a5,0(s1)
    80001e94:	00040513          	mv	a0,s0
    80001e98:	00f43023          	sd	a5,0(s0)
    80001e9c:	eedff0ef          	jal	ra,80001d88 <Proc_3>
    80001ea0:	00842783          	lw	a5,8(s0)
    80001ea4:	04079463          	bnez	a5,80001eec <Proc_1+0x9c>
    80001ea8:	00c4a503          	lw	a0,12(s1)
    80001eac:	00600793          	li	a5,6
    80001eb0:	00f42823          	sw	a5,16(s0)
    80001eb4:	00c40593          	addi	a1,s0,12
    80001eb8:	f4dff0ef          	jal	ra,80001e04 <Proc_6>
    80001ebc:	00093783          	ld	a5,0(s2)
    80001ec0:	0007b783          	ld	a5,0(a5)
    80001ec4:	00f43023          	sd	a5,0(s0)
    80001ec8:	01042783          	lw	a5,16(s0)
    80001ecc:	00c7879b          	addiw	a5,a5,12
    80001ed0:	00f42823          	sw	a5,16(s0)
    80001ed4:	01813083          	ld	ra,24(sp)
    80001ed8:	01013403          	ld	s0,16(sp)
    80001edc:	00813483          	ld	s1,8(sp)
    80001ee0:	00013903          	ld	s2,0(sp)
    80001ee4:	02010113          	addi	sp,sp,32
    80001ee8:	00008067          	ret
    80001eec:	0004b583          	ld	a1,0(s1)
    80001ef0:	03800613          	li	a2,56
    80001ef4:	00048513          	mv	a0,s1
    80001ef8:	05d070ef          	jal	ra,80009754 <memcpy>
    80001efc:	fd9ff06f          	j	80001ed4 <Proc_1+0x84>

0000000080001f00 <Proc_7>:
    80001f00:	0025051b          	addiw	a0,a0,2
    80001f04:	00b5053b          	addw	a0,a0,a1
    80001f08:	00a62023          	sw	a0,0(a2)
    80001f0c:	00008067          	ret

0000000080001f10 <Proc_8>:
    80001f10:	0056079b          	addiw	a5,a2,5
    80001f14:	00279713          	slli	a4,a5,0x2
    80001f18:	00e50533          	add	a0,a0,a4
    80001f1c:	06f52c23          	sw	a5,120(a0)
    80001f20:	00078613          	mv	a2,a5
    80001f24:	00379793          	slli	a5,a5,0x3
    80001f28:	00f585b3          	add	a1,a1,a5
    80001f2c:	0005b783          	ld	a5,0(a1)
    80001f30:	00d52023          	sw	a3,0(a0)
    80001f34:	00d52223          	sw	a3,4(a0)
    80001f38:	00e786b3          	add	a3,a5,a4
    80001f3c:	00c6a023          	sw	a2,0(a3)
    80001f40:	00c6a223          	sw	a2,4(a3)
    80001f44:	ffc70693          	addi	a3,a4,-4
    80001f48:	00d787b3          	add	a5,a5,a3
    80001f4c:	0007a683          	lw	a3,0(a5)
    80001f50:	0016869b          	addiw	a3,a3,1
    80001f54:	00d7a023          	sw	a3,0(a5)
    80001f58:	0a05b783          	ld	a5,160(a1)
    80001f5c:	00052683          	lw	a3,0(a0)
    80001f60:	00e78733          	add	a4,a5,a4
    80001f64:	00d72023          	sw	a3,0(a4)
    80001f68:	00500793          	li	a5,5
    80001f6c:	0001a717          	auipc	a4,0x1a
    80001f70:	aef72623          	sw	a5,-1300(a4) # 8001ba58 <Int_Glob>
    80001f74:	00008067          	ret

0000000080001f78 <Func_1>:
    80001f78:	0ff57513          	andi	a0,a0,255
    80001f7c:	0ff5f593          	andi	a1,a1,255
    80001f80:	00b51a63          	bne	a0,a1,80001f94 <Func_1+0x1c>
    80001f84:	0001a797          	auipc	a5,0x1a
    80001f88:	aca78c23          	sb	a0,-1320(a5) # 8001ba5c <Ch_1_Glob>
    80001f8c:	00100513          	li	a0,1
    80001f90:	00008067          	ret
    80001f94:	00000513          	li	a0,0
    80001f98:	00008067          	ret

0000000080001f9c <Func_2>:
    80001f9c:	ff010113          	addi	sp,sp,-16
    80001fa0:	00113423          	sd	ra,8(sp)
    80001fa4:	0001a797          	auipc	a5,0x1a
    80001fa8:	ab878793          	addi	a5,a5,-1352 # 8001ba5c <Ch_1_Glob>
    80001fac:	00254603          	lbu	a2,2(a0)
    80001fb0:	0035c803          	lbu	a6,3(a1)
    80001fb4:	0007c703          	lbu	a4,0(a5)
    80001fb8:	00000693          	li	a3,0
    80001fbc:	03060c63          	beq	a2,a6,80001ff4 <Func_2+0x58>
    80001fc0:	00068463          	beqz	a3,80001fc8 <Func_2+0x2c>
    80001fc4:	00e78023          	sb	a4,0(a5)
    80001fc8:	768070ef          	jal	ra,80009730 <strcmp>
    80001fcc:	00000793          	li	a5,0
    80001fd0:	00a05a63          	blez	a0,80001fe4 <Func_2+0x48>
    80001fd4:	00a00793          	li	a5,10
    80001fd8:	0001a717          	auipc	a4,0x1a
    80001fdc:	a8f72023          	sw	a5,-1408(a4) # 8001ba58 <Int_Glob>
    80001fe0:	00100793          	li	a5,1
    80001fe4:	00813083          	ld	ra,8(sp)
    80001fe8:	00078513          	mv	a0,a5
    80001fec:	01010113          	addi	sp,sp,16
    80001ff0:	00008067          	ret
    80001ff4:	00100693          	li	a3,1
    80001ff8:	00060713          	mv	a4,a2
    80001ffc:	fc1ff06f          	j	80001fbc <Func_2+0x20>

0000000080002000 <Func_3>:
    80002000:	ffe50513          	addi	a0,a0,-2
    80002004:	00153513          	seqz	a0,a0
    80002008:	00008067          	ret

000000008000200c <check>:
    8000200c:	00051663          	bnez	a0,80002018 <check+0xc>
    80002010:	0001a797          	auipc	a5,0x1a
    80002014:	8407ae23          	sw	zero,-1956(a5) # 8001b86c <pass>
    80002018:	00008067          	ret

000000008000201c <main_dry>:
    8000201c:	f3010113          	addi	sp,sp,-208
    80002020:	0c813023          	sd	s0,192(sp)
    80002024:	0001a417          	auipc	s0,0x1a
    80002028:	89440413          	addi	s0,s0,-1900 # 8001b8b8 <Arr_2_Glob>
    8000202c:	0a913c23          	sd	s1,184(sp)
    80002030:	0b213823          	sd	s2,176(sp)
    80002034:	09713423          	sd	s7,136(sp)
    80002038:	0c113423          	sd	ra,200(sp)
    8000203c:	0b313423          	sd	s3,168(sp)
    80002040:	0b413023          	sd	s4,160(sp)
    80002044:	09513c23          	sd	s5,152(sp)
    80002048:	09613823          	sd	s6,144(sp)
    8000204c:	09813023          	sd	s8,128(sp)
    80002050:	07913c23          	sd	s9,120(sp)
    80002054:	07a13823          	sd	s10,112(sp)
    80002058:	07b13423          	sd	s11,104(sp)
    8000205c:	00000913          	li	s2,0
    80002060:	0001a497          	auipc	s1,0x1a
    80002064:	9e848493          	addi	s1,s1,-1560 # 8001ba48 <End_Time>
    80002068:	00040b93          	mv	s7,s0
    8000206c:	0c800513          	li	a0,200
    80002070:	76c000ef          	jal	ra,800027dc <alloc_buffer>
    80002074:	00a43023          	sd	a0,0(s0)
    80002078:	00840413          	addi	s0,s0,8
    8000207c:	fe8498e3          	bne	s1,s0,8000206c <main_dry+0x50>
    80002080:	40000513          	li	a0,1024
    80002084:	758000ef          	jal	ra,800027dc <alloc_buffer>
    80002088:	00019417          	auipc	s0,0x19
    8000208c:	7a040413          	addi	s0,s0,1952 # 8001b828 <free_mem>
    80002090:	00a43023          	sd	a0,0(s0)
    80002094:	555050ef          	jal	ra,80007de8 <_ioe_init>
    80002098:	00043703          	ld	a4,0(s0)
    8000209c:	00377693          	andi	a3,a4,3
    800020a0:	00070793          	mv	a5,a4
    800020a4:	00170713          	addi	a4,a4,1
    800020a8:	fe069ae3          	bnez	a3,8000209c <main_dry+0x80>
    800020ac:	0001a497          	auipc	s1,0x1a
    800020b0:	9a448493          	addi	s1,s1,-1628 # 8001ba50 <Next_Ptr_Glob>
    800020b4:	00f4b023          	sd	a5,0(s1)
    800020b8:	03878713          	addi	a4,a5,56
    800020bc:	00377693          	andi	a3,a4,3
    800020c0:	00070513          	mv	a0,a4
    800020c4:	00170713          	addi	a4,a4,1
    800020c8:	fe069ae3          	bnez	a3,800020bc <main_dry+0xa0>
    800020cc:	03850713          	addi	a4,a0,56
    800020d0:	00e43023          	sd	a4,0(s0)
    800020d4:	0001a417          	auipc	s0,0x1a
    800020d8:	98c40413          	addi	s0,s0,-1652 # 8001ba60 <Ptr_Glob>
    800020dc:	00a43023          	sd	a0,0(s0)
    800020e0:	00f53023          	sd	a5,0(a0)
    800020e4:	00100793          	li	a5,1
    800020e8:	02179793          	slli	a5,a5,0x21
    800020ec:	00f53423          	sd	a5,8(a0)
    800020f0:	02800793          	li	a5,40
    800020f4:	00f52823          	sw	a5,16(a0)
    800020f8:	0000a597          	auipc	a1,0xa
    800020fc:	60858593          	addi	a1,a1,1544 # 8000c700 <errpat+0x128>
    80002100:	01450513          	addi	a0,a0,20
    80002104:	610070ef          	jal	ra,80009714 <strcpy>
    80002108:	0000a597          	auipc	a1,0xa
    8000210c:	61858593          	addi	a1,a1,1560 # 8000c720 <errpat+0x148>
    80002110:	02010513          	addi	a0,sp,32
    80002114:	600070ef          	jal	ra,80009714 <strcpy>
    80002118:	040bb783          	ld	a5,64(s7)
    8000211c:	00a00713          	li	a4,10
    80002120:	0000a597          	auipc	a1,0xa
    80002124:	62058593          	addi	a1,a1,1568 # 8000c740 <errpat+0x168>
    80002128:	00e7ae23          	sw	a4,28(a5)
    8000212c:	0000a517          	auipc	a0,0xa
    80002130:	62450513          	addi	a0,a0,1572 # 8000c750 <errpat+0x178>
    80002134:	4fc070ef          	jal	ra,80009630 <printf_>
    80002138:	00002ab7          	lui	s5,0x2
    8000213c:	710a8593          	addi	a1,s5,1808 # 2710 <_start-0x7fffd8f0>
    80002140:	0000a517          	auipc	a0,0xa
    80002144:	63850513          	addi	a0,a0,1592 # 8000c778 <errpat+0x1a0>
    80002148:	0001a797          	auipc	a5,0x1a
    8000214c:	9207a023          	sw	zero,-1760(a5) # 8001ba68 <Done>
    80002150:	4e0070ef          	jal	ra,80009630 <printf_>
    80002154:	6ad050ef          	jal	ra,80008000 <uptime>
    80002158:	02051513          	slli	a0,a0,0x20
    8000215c:	00019a17          	auipc	s4,0x19
    80002160:	754a0a13          	addi	s4,s4,1876 # 8001b8b0 <Begin_Time>
    80002164:	02055513          	srli	a0,a0,0x20
    80002168:	0001ac17          	auipc	s8,0x1a
    8000216c:	9d0c0c13          	addi	s8,s8,-1584 # 8001bb38 <Bool_Glob>
    80002170:	0001ac97          	auipc	s9,0x1a
    80002174:	8edc8c93          	addi	s9,s9,-1811 # 8001ba5d <Ch_2_Glob>
    80002178:	00aa3023          	sd	a0,0(s4)
    8000217c:	00100993          	li	s3,1
    80002180:	000c0d93          	mv	s11,s8
    80002184:	000c8d13          	mv	s10,s9
    80002188:	711a8a93          	addi	s5,s5,1809
    8000218c:	c61ff0ef          	jal	ra,80001dec <Proc_5>
    80002190:	c29ff0ef          	jal	ra,80001db8 <Proc_4>
    80002194:	00200793          	li	a5,2
    80002198:	0000a597          	auipc	a1,0xa
    8000219c:	60858593          	addi	a1,a1,1544 # 8000c7a0 <errpat+0x1c8>
    800021a0:	04010513          	addi	a0,sp,64
    800021a4:	00f12e23          	sw	a5,28(sp)
    800021a8:	56c070ef          	jal	ra,80009714 <strcpy>
    800021ac:	04010593          	addi	a1,sp,64
    800021b0:	02010513          	addi	a0,sp,32
    800021b4:	de9ff0ef          	jal	ra,80001f9c <Func_2>
    800021b8:	01c12703          	lw	a4,28(sp)
    800021bc:	00153513          	seqz	a0,a0
    800021c0:	00ac2023          	sw	a0,0(s8)
    800021c4:	00070793          	mv	a5,a4
    800021c8:	00000693          	li	a3,0
    800021cc:	00200613          	li	a2,2
    800021d0:	58f65863          	bge	a2,a5,80002760 <main_dry+0x744>
    800021d4:	00300613          	li	a2,3
    800021d8:	00000793          	li	a5,0
    800021dc:	00e64663          	blt	a2,a4,800021e8 <main_dry+0x1cc>
    800021e0:	00300793          	li	a5,3
    800021e4:	40e787bb          	subw	a5,a5,a4
    800021e8:	00e7863b          	addw	a2,a5,a4
    800021ec:	00068463          	beqz	a3,800021f4 <main_dry+0x1d8>
    800021f0:	00c12e23          	sw	a2,28(sp)
    800021f4:	00090693          	mv	a3,s2
    800021f8:	00019597          	auipc	a1,0x19
    800021fc:	6c058593          	addi	a1,a1,1728 # 8001b8b8 <Arr_2_Glob>
    80002200:	0001a517          	auipc	a0,0x1a
    80002204:	87050513          	addi	a0,a0,-1936 # 8001ba70 <Arr_1_Glob>
    80002208:	d09ff0ef          	jal	ra,80001f10 <Proc_8>
    8000220c:	00043503          	ld	a0,0(s0)
    80002210:	00100b13          	li	s6,1
    80002214:	c3dff0ef          	jal	ra,80001e50 <Proc_1>
    80002218:	04100713          	li	a4,65
    8000221c:	00300693          	li	a3,3
    80002220:	04300613          	li	a2,67
    80002224:	0001a817          	auipc	a6,0x1a
    80002228:	83880813          	addi	a6,a6,-1992 # 8001ba5c <Ch_1_Glob>
    8000222c:	0000a597          	auipc	a1,0xa
    80002230:	59458593          	addi	a1,a1,1428 # 8000c7c0 <errpat+0x1e8>
    80002234:	000cc783          	lbu	a5,0(s9)
    80002238:	52e7fc63          	bgeu	a5,a4,80002770 <main_dry+0x754>
    8000223c:	01c12783          	lw	a5,28(sp)
    80002240:	01c10513          	addi	a0,sp,28
    80002244:	0019899b          	addiw	s3,s3,1
    80002248:	02d7873b          	mulw	a4,a5,a3
    8000224c:	00e13423          	sd	a4,8(sp)
    80002250:	0327473b          	divw	a4,a4,s2
    80002254:	00e13023          	sd	a4,0(sp)
    80002258:	00e12e23          	sw	a4,28(sp)
    8000225c:	b01ff0ef          	jal	ra,80001d5c <Proc_2>
    80002260:	f35996e3          	bne	s3,s5,8000218c <main_dry+0x170>
    80002264:	59d050ef          	jal	ra,80008000 <uptime>
    80002268:	02051513          	slli	a0,a0,0x20
    8000226c:	02055513          	srli	a0,a0,0x20
    80002270:	00019797          	auipc	a5,0x19
    80002274:	7ca7bc23          	sd	a0,2008(a5) # 8001ba48 <End_Time>
    80002278:	000a3783          	ld	a5,0(s4)
    8000227c:	00019997          	auipc	s3,0x19
    80002280:	62c98993          	addi	s3,s3,1580 # 8001b8a8 <User_Time>
    80002284:	00019597          	auipc	a1,0x19
    80002288:	7d45a583          	lw	a1,2004(a1) # 8001ba58 <Int_Glob>
    8000228c:	40f50533          	sub	a0,a0,a5
    80002290:	00100793          	li	a5,1
    80002294:	00019717          	auipc	a4,0x19
    80002298:	7cf72a23          	sw	a5,2004(a4) # 8001ba68 <Done>
    8000229c:	00a9b023          	sd	a0,0(s3)
    800022a0:	00500793          	li	a5,5
    800022a4:	02f58463          	beq	a1,a5,800022cc <main_dry+0x2b0>
    800022a8:	0000a517          	auipc	a0,0xa
    800022ac:	53850513          	addi	a0,a0,1336 # 8000c7e0 <errpat+0x208>
    800022b0:	00019797          	auipc	a5,0x19
    800022b4:	5a07ae23          	sw	zero,1468(a5) # 8001b86c <pass>
    800022b8:	378070ef          	jal	ra,80009630 <printf_>
    800022bc:	00500593          	li	a1,5
    800022c0:	0000a517          	auipc	a0,0xa
    800022c4:	54050513          	addi	a0,a0,1344 # 8000c800 <errpat+0x228>
    800022c8:	368070ef          	jal	ra,80009630 <printf_>
    800022cc:	000da583          	lw	a1,0(s11)
    800022d0:	00100793          	li	a5,1
    800022d4:	02f58463          	beq	a1,a5,800022fc <main_dry+0x2e0>
    800022d8:	0000a517          	auipc	a0,0xa
    800022dc:	54850513          	addi	a0,a0,1352 # 8000c820 <errpat+0x248>
    800022e0:	00019797          	auipc	a5,0x19
    800022e4:	5807a623          	sw	zero,1420(a5) # 8001b86c <pass>
    800022e8:	348070ef          	jal	ra,80009630 <printf_>
    800022ec:	00100593          	li	a1,1
    800022f0:	0000a517          	auipc	a0,0xa
    800022f4:	51050513          	addi	a0,a0,1296 # 8000c800 <errpat+0x228>
    800022f8:	338070ef          	jal	ra,80009630 <printf_>
    800022fc:	00019597          	auipc	a1,0x19
    80002300:	7605c583          	lbu	a1,1888(a1) # 8001ba5c <Ch_1_Glob>
    80002304:	04100793          	li	a5,65
    80002308:	02f58463          	beq	a1,a5,80002330 <main_dry+0x314>
    8000230c:	0000a517          	auipc	a0,0xa
    80002310:	53450513          	addi	a0,a0,1332 # 8000c840 <errpat+0x268>
    80002314:	00019797          	auipc	a5,0x19
    80002318:	5407ac23          	sw	zero,1368(a5) # 8001b86c <pass>
    8000231c:	314070ef          	jal	ra,80009630 <printf_>
    80002320:	04100593          	li	a1,65
    80002324:	0000a517          	auipc	a0,0xa
    80002328:	53c50513          	addi	a0,a0,1340 # 8000c860 <errpat+0x288>
    8000232c:	304070ef          	jal	ra,80009630 <printf_>
    80002330:	000d4583          	lbu	a1,0(s10)
    80002334:	04200793          	li	a5,66
    80002338:	02f58463          	beq	a1,a5,80002360 <main_dry+0x344>
    8000233c:	0000a517          	auipc	a0,0xa
    80002340:	54450513          	addi	a0,a0,1348 # 8000c880 <errpat+0x2a8>
    80002344:	00019797          	auipc	a5,0x19
    80002348:	5207a423          	sw	zero,1320(a5) # 8001b86c <pass>
    8000234c:	2e4070ef          	jal	ra,80009630 <printf_>
    80002350:	04200593          	li	a1,66
    80002354:	0000a517          	auipc	a0,0xa
    80002358:	50c50513          	addi	a0,a0,1292 # 8000c860 <errpat+0x288>
    8000235c:	2d4070ef          	jal	ra,80009630 <printf_>
    80002360:	00019597          	auipc	a1,0x19
    80002364:	7305a583          	lw	a1,1840(a1) # 8001ba90 <Arr_1_Glob+0x20>
    80002368:	00700793          	li	a5,7
    8000236c:	02f58463          	beq	a1,a5,80002394 <main_dry+0x378>
    80002370:	0000a517          	auipc	a0,0xa
    80002374:	53050513          	addi	a0,a0,1328 # 8000c8a0 <errpat+0x2c8>
    80002378:	00019797          	auipc	a5,0x19
    8000237c:	4e07aa23          	sw	zero,1268(a5) # 8001b86c <pass>
    80002380:	2b0070ef          	jal	ra,80009630 <printf_>
    80002384:	00700593          	li	a1,7
    80002388:	0000a517          	auipc	a0,0xa
    8000238c:	47850513          	addi	a0,a0,1144 # 8000c800 <errpat+0x228>
    80002390:	2a0070ef          	jal	ra,80009630 <printf_>
    80002394:	040bb783          	ld	a5,64(s7)
    80002398:	01c7a583          	lw	a1,28(a5)
    8000239c:	000027b7          	lui	a5,0x2
    800023a0:	71a78793          	addi	a5,a5,1818 # 271a <_start-0x7fffd8e6>
    800023a4:	02f58263          	beq	a1,a5,800023c8 <main_dry+0x3ac>
    800023a8:	0000a517          	auipc	a0,0xa
    800023ac:	51850513          	addi	a0,a0,1304 # 8000c8c0 <errpat+0x2e8>
    800023b0:	00019797          	auipc	a5,0x19
    800023b4:	4a07ae23          	sw	zero,1212(a5) # 8001b86c <pass>
    800023b8:	278070ef          	jal	ra,80009630 <printf_>
    800023bc:	0000a517          	auipc	a0,0xa
    800023c0:	52450513          	addi	a0,a0,1316 # 8000c8e0 <errpat+0x308>
    800023c4:	26c070ef          	jal	ra,80009630 <printf_>
    800023c8:	00043783          	ld	a5,0(s0)
    800023cc:	0087a583          	lw	a1,8(a5)
    800023d0:	02058463          	beqz	a1,800023f8 <main_dry+0x3dc>
    800023d4:	0000a517          	auipc	a0,0xa
    800023d8:	53c50513          	addi	a0,a0,1340 # 8000c910 <errpat+0x338>
    800023dc:	00019797          	auipc	a5,0x19
    800023e0:	4807a823          	sw	zero,1168(a5) # 8001b86c <pass>
    800023e4:	24c070ef          	jal	ra,80009630 <printf_>
    800023e8:	00000593          	li	a1,0
    800023ec:	0000a517          	auipc	a0,0xa
    800023f0:	41450513          	addi	a0,a0,1044 # 8000c800 <errpat+0x228>
    800023f4:	23c070ef          	jal	ra,80009630 <printf_>
    800023f8:	00043783          	ld	a5,0(s0)
    800023fc:	00c7a583          	lw	a1,12(a5)
    80002400:	00200793          	li	a5,2
    80002404:	02f58463          	beq	a1,a5,8000242c <main_dry+0x410>
    80002408:	0000a517          	auipc	a0,0xa
    8000240c:	53050513          	addi	a0,a0,1328 # 8000c938 <errpat+0x360>
    80002410:	00019797          	auipc	a5,0x19
    80002414:	4407ae23          	sw	zero,1116(a5) # 8001b86c <pass>
    80002418:	218070ef          	jal	ra,80009630 <printf_>
    8000241c:	00200593          	li	a1,2
    80002420:	0000a517          	auipc	a0,0xa
    80002424:	3e050513          	addi	a0,a0,992 # 8000c800 <errpat+0x228>
    80002428:	208070ef          	jal	ra,80009630 <printf_>
    8000242c:	00043783          	ld	a5,0(s0)
    80002430:	0107a583          	lw	a1,16(a5)
    80002434:	01100793          	li	a5,17
    80002438:	02f58463          	beq	a1,a5,80002460 <main_dry+0x444>
    8000243c:	0000a517          	auipc	a0,0xa
    80002440:	52450513          	addi	a0,a0,1316 # 8000c960 <errpat+0x388>
    80002444:	00019797          	auipc	a5,0x19
    80002448:	4207a423          	sw	zero,1064(a5) # 8001b86c <pass>
    8000244c:	1e4070ef          	jal	ra,80009630 <printf_>
    80002450:	01100593          	li	a1,17
    80002454:	0000a517          	auipc	a0,0xa
    80002458:	3ac50513          	addi	a0,a0,940 # 8000c800 <errpat+0x228>
    8000245c:	1d4070ef          	jal	ra,80009630 <printf_>
    80002460:	00043503          	ld	a0,0(s0)
    80002464:	0000a597          	auipc	a1,0xa
    80002468:	29c58593          	addi	a1,a1,668 # 8000c700 <errpat+0x128>
    8000246c:	01450513          	addi	a0,a0,20
    80002470:	2c0070ef          	jal	ra,80009730 <strcmp>
    80002474:	02050663          	beqz	a0,800024a0 <main_dry+0x484>
    80002478:	00043583          	ld	a1,0(s0)
    8000247c:	0000a517          	auipc	a0,0xa
    80002480:	50c50513          	addi	a0,a0,1292 # 8000c988 <errpat+0x3b0>
    80002484:	00019797          	auipc	a5,0x19
    80002488:	3e07a423          	sw	zero,1000(a5) # 8001b86c <pass>
    8000248c:	01458593          	addi	a1,a1,20
    80002490:	1a0070ef          	jal	ra,80009630 <printf_>
    80002494:	0000a517          	auipc	a0,0xa
    80002498:	51c50513          	addi	a0,a0,1308 # 8000c9b0 <errpat+0x3d8>
    8000249c:	194070ef          	jal	ra,80009630 <printf_>
    800024a0:	0004b783          	ld	a5,0(s1)
    800024a4:	0087a583          	lw	a1,8(a5)
    800024a8:	02058463          	beqz	a1,800024d0 <main_dry+0x4b4>
    800024ac:	0000a517          	auipc	a0,0xa
    800024b0:	53c50513          	addi	a0,a0,1340 # 8000c9e8 <errpat+0x410>
    800024b4:	00019797          	auipc	a5,0x19
    800024b8:	3a07ac23          	sw	zero,952(a5) # 8001b86c <pass>
    800024bc:	174070ef          	jal	ra,80009630 <printf_>
    800024c0:	00000593          	li	a1,0
    800024c4:	0000a517          	auipc	a0,0xa
    800024c8:	33c50513          	addi	a0,a0,828 # 8000c800 <errpat+0x228>
    800024cc:	164070ef          	jal	ra,80009630 <printf_>
    800024d0:	0004b783          	ld	a5,0(s1)
    800024d4:	00c7a583          	lw	a1,12(a5)
    800024d8:	00100793          	li	a5,1
    800024dc:	02f58463          	beq	a1,a5,80002504 <main_dry+0x4e8>
    800024e0:	0000a517          	auipc	a0,0xa
    800024e4:	53050513          	addi	a0,a0,1328 # 8000ca10 <errpat+0x438>
    800024e8:	00019797          	auipc	a5,0x19
    800024ec:	3807a223          	sw	zero,900(a5) # 8001b86c <pass>
    800024f0:	140070ef          	jal	ra,80009630 <printf_>
    800024f4:	00100593          	li	a1,1
    800024f8:	0000a517          	auipc	a0,0xa
    800024fc:	30850513          	addi	a0,a0,776 # 8000c800 <errpat+0x228>
    80002500:	130070ef          	jal	ra,80009630 <printf_>
    80002504:	0004b783          	ld	a5,0(s1)
    80002508:	0107a583          	lw	a1,16(a5)
    8000250c:	01200793          	li	a5,18
    80002510:	02f58463          	beq	a1,a5,80002538 <main_dry+0x51c>
    80002514:	0000a517          	auipc	a0,0xa
    80002518:	52450513          	addi	a0,a0,1316 # 8000ca38 <errpat+0x460>
    8000251c:	00019797          	auipc	a5,0x19
    80002520:	3407a823          	sw	zero,848(a5) # 8001b86c <pass>
    80002524:	10c070ef          	jal	ra,80009630 <printf_>
    80002528:	01200593          	li	a1,18
    8000252c:	0000a517          	auipc	a0,0xa
    80002530:	2d450513          	addi	a0,a0,724 # 8000c800 <errpat+0x228>
    80002534:	0fc070ef          	jal	ra,80009630 <printf_>
    80002538:	0004b503          	ld	a0,0(s1)
    8000253c:	0000a597          	auipc	a1,0xa
    80002540:	1c458593          	addi	a1,a1,452 # 8000c700 <errpat+0x128>
    80002544:	01450513          	addi	a0,a0,20
    80002548:	1e8070ef          	jal	ra,80009730 <strcmp>
    8000254c:	02050663          	beqz	a0,80002578 <main_dry+0x55c>
    80002550:	0004b583          	ld	a1,0(s1)
    80002554:	0000a517          	auipc	a0,0xa
    80002558:	50c50513          	addi	a0,a0,1292 # 8000ca60 <errpat+0x488>
    8000255c:	00019797          	auipc	a5,0x19
    80002560:	3007a823          	sw	zero,784(a5) # 8001b86c <pass>
    80002564:	01458593          	addi	a1,a1,20
    80002568:	0c8070ef          	jal	ra,80009630 <printf_>
    8000256c:	0000a517          	auipc	a0,0xa
    80002570:	44450513          	addi	a0,a0,1092 # 8000c9b0 <errpat+0x3d8>
    80002574:	0bc070ef          	jal	ra,80009630 <printf_>
    80002578:	01c12583          	lw	a1,28(sp)
    8000257c:	00500793          	li	a5,5
    80002580:	02f58463          	beq	a1,a5,800025a8 <main_dry+0x58c>
    80002584:	0000a517          	auipc	a0,0xa
    80002588:	50450513          	addi	a0,a0,1284 # 8000ca88 <errpat+0x4b0>
    8000258c:	00019797          	auipc	a5,0x19
    80002590:	2e07a023          	sw	zero,736(a5) # 8001b86c <pass>
    80002594:	09c070ef          	jal	ra,80009630 <printf_>
    80002598:	00500593          	li	a1,5
    8000259c:	0000a517          	auipc	a0,0xa
    800025a0:	26450513          	addi	a0,a0,612 # 8000c800 <errpat+0x228>
    800025a4:	08c070ef          	jal	ra,80009630 <printf_>
    800025a8:	00813783          	ld	a5,8(sp)
    800025ac:	412785bb          	subw	a1,a5,s2
    800025b0:	00700793          	li	a5,7
    800025b4:	02f585bb          	mulw	a1,a1,a5
    800025b8:	00013783          	ld	a5,0(sp)
    800025bc:	40f585bb          	subw	a1,a1,a5
    800025c0:	00d00793          	li	a5,13
    800025c4:	02f58463          	beq	a1,a5,800025ec <main_dry+0x5d0>
    800025c8:	0000a517          	auipc	a0,0xa
    800025cc:	4e050513          	addi	a0,a0,1248 # 8000caa8 <errpat+0x4d0>
    800025d0:	00019797          	auipc	a5,0x19
    800025d4:	2807ae23          	sw	zero,668(a5) # 8001b86c <pass>
    800025d8:	058070ef          	jal	ra,80009630 <printf_>
    800025dc:	00d00593          	li	a1,13
    800025e0:	0000a517          	auipc	a0,0xa
    800025e4:	22050513          	addi	a0,a0,544 # 8000c800 <errpat+0x228>
    800025e8:	048070ef          	jal	ra,80009630 <printf_>
    800025ec:	00700793          	li	a5,7
    800025f0:	02f90663          	beq	s2,a5,8000261c <main_dry+0x600>
    800025f4:	00090593          	mv	a1,s2
    800025f8:	0000a517          	auipc	a0,0xa
    800025fc:	4d050513          	addi	a0,a0,1232 # 8000cac8 <errpat+0x4f0>
    80002600:	00019797          	auipc	a5,0x19
    80002604:	2607a623          	sw	zero,620(a5) # 8001b86c <pass>
    80002608:	028070ef          	jal	ra,80009630 <printf_>
    8000260c:	00700593          	li	a1,7
    80002610:	0000a517          	auipc	a0,0xa
    80002614:	1f050513          	addi	a0,a0,496 # 8000c800 <errpat+0x228>
    80002618:	018070ef          	jal	ra,80009630 <printf_>
    8000261c:	020b1663          	bnez	s6,80002648 <main_dry+0x62c>
    80002620:	00000593          	li	a1,0
    80002624:	0000a517          	auipc	a0,0xa
    80002628:	4c450513          	addi	a0,a0,1220 # 8000cae8 <errpat+0x510>
    8000262c:	00019797          	auipc	a5,0x19
    80002630:	2407a023          	sw	zero,576(a5) # 8001b86c <pass>
    80002634:	7fd060ef          	jal	ra,80009630 <printf_>
    80002638:	00100593          	li	a1,1
    8000263c:	0000a517          	auipc	a0,0xa
    80002640:	1c450513          	addi	a0,a0,452 # 8000c800 <errpat+0x228>
    80002644:	7ed060ef          	jal	ra,80009630 <printf_>
    80002648:	0000a597          	auipc	a1,0xa
    8000264c:	0d858593          	addi	a1,a1,216 # 8000c720 <errpat+0x148>
    80002650:	02010513          	addi	a0,sp,32
    80002654:	0dc070ef          	jal	ra,80009730 <strcmp>
    80002658:	02050463          	beqz	a0,80002680 <main_dry+0x664>
    8000265c:	02010593          	addi	a1,sp,32
    80002660:	0000a517          	auipc	a0,0xa
    80002664:	4a850513          	addi	a0,a0,1192 # 8000cb08 <errpat+0x530>
    80002668:	00019797          	auipc	a5,0x19
    8000266c:	2007a223          	sw	zero,516(a5) # 8001b86c <pass>
    80002670:	7c1060ef          	jal	ra,80009630 <printf_>
    80002674:	0000a517          	auipc	a0,0xa
    80002678:	4b450513          	addi	a0,a0,1204 # 8000cb28 <errpat+0x550>
    8000267c:	7b5060ef          	jal	ra,80009630 <printf_>
    80002680:	0000a597          	auipc	a1,0xa
    80002684:	12058593          	addi	a1,a1,288 # 8000c7a0 <errpat+0x1c8>
    80002688:	04010513          	addi	a0,sp,64
    8000268c:	0a4070ef          	jal	ra,80009730 <strcmp>
    80002690:	02050463          	beqz	a0,800026b8 <main_dry+0x69c>
    80002694:	04010593          	addi	a1,sp,64
    80002698:	0000a517          	auipc	a0,0xa
    8000269c:	4c850513          	addi	a0,a0,1224 # 8000cb60 <errpat+0x588>
    800026a0:	00019797          	auipc	a5,0x19
    800026a4:	1c07a623          	sw	zero,460(a5) # 8001b86c <pass>
    800026a8:	789060ef          	jal	ra,80009630 <printf_>
    800026ac:	0000a517          	auipc	a0,0xa
    800026b0:	4d450513          	addi	a0,a0,1236 # 8000cb80 <errpat+0x5a8>
    800026b4:	77d060ef          	jal	ra,80009630 <printf_>
    800026b8:	0009a583          	lw	a1,0(s3)
    800026bc:	0000a517          	auipc	a0,0xa
    800026c0:	4fc50513          	addi	a0,a0,1276 # 8000cbb8 <errpat+0x5e0>
    800026c4:	76d060ef          	jal	ra,80009630 <printf_>
    800026c8:	0000a517          	auipc	a0,0xa
    800026cc:	d7050513          	addi	a0,a0,-656 # 8000c438 <__clzdi2+0x39c>
    800026d0:	761060ef          	jal	ra,80009630 <printf_>
    800026d4:	00019797          	auipc	a5,0x19
    800026d8:	1987a783          	lw	a5,408(a5) # 8001b86c <pass>
    800026dc:	0000a597          	auipc	a1,0xa
    800026e0:	01458593          	addi	a1,a1,20 # 8000c6f0 <errpat+0x118>
    800026e4:	00079663          	bnez	a5,800026f0 <main_dry+0x6d4>
    800026e8:	0000a597          	auipc	a1,0xa
    800026ec:	01058593          	addi	a1,a1,16 # 8000c6f8 <errpat+0x120>
    800026f0:	0009b603          	ld	a2,0(s3)
    800026f4:	000d77b7          	lui	a5,0xd7
    800026f8:	1047879b          	addiw	a5,a5,260
    800026fc:	02c7c7bb          	divw	a5,a5,a2
    80002700:	03200613          	li	a2,50
    80002704:	0000a517          	auipc	a0,0xa
    80002708:	4cc50513          	addi	a0,a0,1228 # 8000cbd0 <errpat+0x5f8>
    8000270c:	02c7c63b          	divw	a2,a5,a2
    80002710:	721060ef          	jal	ra,80009630 <printf_>
    80002714:	0000a517          	auipc	a0,0xa
    80002718:	4dc50513          	addi	a0,a0,1244 # 8000cbf0 <errpat+0x618>
    8000271c:	715060ef          	jal	ra,80009630 <printf_>
    80002720:	0c813083          	ld	ra,200(sp)
    80002724:	0c013403          	ld	s0,192(sp)
    80002728:	0b813483          	ld	s1,184(sp)
    8000272c:	0b013903          	ld	s2,176(sp)
    80002730:	0a813983          	ld	s3,168(sp)
    80002734:	0a013a03          	ld	s4,160(sp)
    80002738:	09813a83          	ld	s5,152(sp)
    8000273c:	09013b03          	ld	s6,144(sp)
    80002740:	08813b83          	ld	s7,136(sp)
    80002744:	08013c03          	ld	s8,128(sp)
    80002748:	07813c83          	ld	s9,120(sp)
    8000274c:	07013d03          	ld	s10,112(sp)
    80002750:	06813d83          	ld	s11,104(sp)
    80002754:	00000513          	li	a0,0
    80002758:	0d010113          	addi	sp,sp,208
    8000275c:	00008067          	ret
    80002760:	0057891b          	addiw	s2,a5,5
    80002764:	00100693          	li	a3,1
    80002768:	0017879b          	addiw	a5,a5,1
    8000276c:	a65ff06f          	j	800021d0 <main_dry+0x1b4>
    80002770:	00000793          	li	a5,0
    80002774:	00c71663          	bne	a4,a2,80002780 <main_dry+0x764>
    80002778:	00e80023          	sb	a4,0(a6)
    8000277c:	00100793          	li	a5,1
    80002780:	03679e63          	bne	a5,s6,800027bc <main_dry+0x7a0>
    80002784:	04010513          	addi	a0,sp,64
    80002788:	00e13023          	sd	a4,0(sp)
    8000278c:	789060ef          	jal	ra,80009714 <strcpy>
    80002790:	00013703          	ld	a4,0(sp)
    80002794:	00019897          	auipc	a7,0x19
    80002798:	2c488893          	addi	a7,a7,708 # 8001ba58 <Int_Glob>
    8000279c:	0138a023          	sw	s3,0(a7)
    800027a0:	00098693          	mv	a3,s3
    800027a4:	00000b13          	li	s6,0
    800027a8:	00019817          	auipc	a6,0x19
    800027ac:	2b480813          	addi	a6,a6,692 # 8001ba5c <Ch_1_Glob>
    800027b0:	04300613          	li	a2,67
    800027b4:	0000a597          	auipc	a1,0xa
    800027b8:	00c58593          	addi	a1,a1,12 # 8000c7c0 <errpat+0x1e8>
    800027bc:	0017071b          	addiw	a4,a4,1
    800027c0:	0ff77713          	andi	a4,a4,255
    800027c4:	a71ff06f          	j	80002234 <main_dry+0x218>

00000000800027c8 <reset_buffer>:
    800027c8:	0000d797          	auipc	a5,0xd
    800027cc:	83878793          	addi	a5,a5,-1992 # 8000f000 <buffer>
    800027d0:	00019717          	auipc	a4,0x19
    800027d4:	0af73023          	sd	a5,160(a4) # 8001b870 <buffer_top>
    800027d8:	00008067          	ret

00000000800027dc <alloc_buffer>:
    800027dc:	00019717          	auipc	a4,0x19
    800027e0:	09470713          	addi	a4,a4,148 # 8001b870 <buffer_top>
    800027e4:	00050793          	mv	a5,a0
    800027e8:	00073503          	ld	a0,0(a4)
    800027ec:	ff07f793          	andi	a5,a5,-16
    800027f0:	01078793          	addi	a5,a5,16
    800027f4:	00f507b3          	add	a5,a0,a5
    800027f8:	0000d617          	auipc	a2,0xd
    800027fc:	80860613          	addi	a2,a2,-2040 # 8000f000 <buffer>
    80002800:	0000c6b7          	lui	a3,0xc
    80002804:	00f73023          	sd	a5,0(a4)
    80002808:	40c78633          	sub	a2,a5,a2
    8000280c:	03f68693          	addi	a3,a3,63 # c03f <_start-0x7fff3fc1>
    80002810:	00050713          	mv	a4,a0
    80002814:	02c6d263          	bge	a3,a2,80002838 <alloc_buffer+0x5c>
    80002818:	ff010113          	addi	sp,sp,-16
    8000281c:	0000a517          	auipc	a0,0xa
    80002820:	41450513          	addi	a0,a0,1044 # 8000cc30 <errpat+0x658>
    80002824:	00113423          	sd	ra,8(sp)
    80002828:	609060ef          	jal	ra,80009630 <printf_>
    8000282c:	0000006f          	j	8000282c <alloc_buffer+0x50>
    80002830:	00073023          	sd	zero,0(a4)
    80002834:	00870713          	addi	a4,a4,8
    80002838:	fef76ce3          	bltu	a4,a5,80002830 <alloc_buffer+0x54>
    8000283c:	00008067          	ret

0000000080002840 <_ZZ5pdrawvENUliiE_4_FUNEii>:
    80002840:	00100513          	li	a0,1
    80002844:	00008067          	ret

0000000080002848 <_ZZ5pdrawvENUliiE0_4_FUNEii>:
    80002848:	00200513          	li	a0,2
    8000284c:	00008067          	ret

0000000080002850 <_ZZ5pdrawvENUliiE2_4_FUNEii>:
    80002850:	00300513          	li	a0,3
    80002854:	00008067          	ret

0000000080002858 <_ZZ5pdrawvENUliiE3_4_FUNEii>:
    80002858:	00400513          	li	a0,4
    8000285c:	00008067          	ret

0000000080002860 <_ZZ5pdrawvENUliiE4_4_FUNEii>:
    80002860:	00500513          	li	a0,5
    80002864:	00008067          	ret

0000000080002868 <_Z4sqrtf>:
    80002868:	fd010113          	addi	sp,sp,-48
    8000286c:	02113423          	sd	ra,40(sp)
    80002870:	02813023          	sd	s0,32(sp)
    80002874:	00913c23          	sd	s1,24(sp)
    80002878:	00050413          	mv	s0,a0
    8000287c:	060080ef          	jal	ra,8000a8dc <__extendsfdf2>
    80002880:	0000b597          	auipc	a1,0xb
    80002884:	3a05b583          	ld	a1,928(a1) # 8000dc20 <__clz_tab+0x100>
    80002888:	7c0080ef          	jal	ra,8000b048 <__muldf3>
    8000288c:	0000b597          	auipc	a1,0xb
    80002890:	39c5b583          	ld	a1,924(a1) # 8000dc28 <__clz_tab+0x108>
    80002894:	104070ef          	jal	ra,80009998 <__adddf3>
    80002898:	680090ef          	jal	ra,8000bf18 <__truncdfsf2>
    8000289c:	00050593          	mv	a1,a0
    800028a0:	00040513          	mv	a0,s0
    800028a4:	00b13423          	sd	a1,8(sp)
    800028a8:	501070ef          	jal	ra,8000a5a8 <__divsf3>
    800028ac:	00813583          	ld	a1,8(sp)
    800028b0:	0000b497          	auipc	s1,0xb
    800028b4:	4b848493          	addi	s1,s1,1208 # 8000dd68 <__clz_tab+0x248>
    800028b8:	548070ef          	jal	ra,80009e00 <__addsf3>
    800028bc:	0004a583          	lw	a1,0(s1)
    800028c0:	2b5080ef          	jal	ra,8000b374 <__mulsf3>
    800028c4:	00050593          	mv	a1,a0
    800028c8:	00040513          	mv	a0,s0
    800028cc:	00b13423          	sd	a1,8(sp)
    800028d0:	4d9070ef          	jal	ra,8000a5a8 <__divsf3>
    800028d4:	00813583          	ld	a1,8(sp)
    800028d8:	528070ef          	jal	ra,80009e00 <__addsf3>
    800028dc:	0004a583          	lw	a1,0(s1)
    800028e0:	295080ef          	jal	ra,8000b374 <__mulsf3>
    800028e4:	00050593          	mv	a1,a0
    800028e8:	00040513          	mv	a0,s0
    800028ec:	00b13423          	sd	a1,8(sp)
    800028f0:	4b9070ef          	jal	ra,8000a5a8 <__divsf3>
    800028f4:	00813583          	ld	a1,8(sp)
    800028f8:	508070ef          	jal	ra,80009e00 <__addsf3>
    800028fc:	0004a583          	lw	a1,0(s1)
    80002900:	275080ef          	jal	ra,8000b374 <__mulsf3>
    80002904:	02813083          	ld	ra,40(sp)
    80002908:	02013403          	ld	s0,32(sp)
    8000290c:	01813483          	ld	s1,24(sp)
    80002910:	03010113          	addi	sp,sp,48
    80002914:	00008067          	ret

0000000080002918 <_ZZ5pdrawvENUliiE1_4_FUNEii>:
    80002918:	ff65051b          	addiw	a0,a0,-10
    8000291c:	fe65859b          	addiw	a1,a1,-26
    80002920:	02b585bb          	mulw	a1,a1,a1
    80002924:	ff010113          	addi	sp,sp,-16
    80002928:	00113423          	sd	ra,8(sp)
    8000292c:	02a5053b          	mulw	a0,a0,a0
    80002930:	00b5053b          	addw	a0,a0,a1
    80002934:	228080ef          	jal	ra,8000ab5c <__floatsisf>
    80002938:	f31ff0ef          	jal	ra,80002868 <_Z4sqrtf>
    8000293c:	0000b597          	auipc	a1,0xb
    80002940:	4305a583          	lw	a1,1072(a1) # 8000dd6c <__clz_tab+0x24c>
    80002944:	231080ef          	jal	ra,8000b374 <__mulsf3>
    80002948:	0000b597          	auipc	a1,0xb
    8000294c:	4285a583          	lw	a1,1064(a1) # 8000dd70 <__clz_tab+0x250>
    80002950:	459070ef          	jal	ra,8000a5a8 <__divsf3>
    80002954:	090080ef          	jal	ra,8000a9e4 <__fixsfsi>
    80002958:	00813083          	ld	ra,8(sp)
    8000295c:	0075051b          	addiw	a0,a0,7
    80002960:	01010113          	addi	sp,sp,16
    80002964:	00008067          	ret

0000000080002968 <_Z5roundf>:
    80002968:	fe010113          	addi	sp,sp,-32
    8000296c:	00113c23          	sd	ra,24(sp)
    80002970:	00913423          	sd	s1,8(sp)
    80002974:	01213023          	sd	s2,0(sp)
    80002978:	00813823          	sd	s0,16(sp)
    8000297c:	00050913          	mv	s2,a0
    80002980:	064080ef          	jal	ra,8000a9e4 <__fixsfsi>
    80002984:	0005049b          	sext.w	s1,a0
    80002988:	00048513          	mv	a0,s1
    8000298c:	1d0080ef          	jal	ra,8000ab5c <__floatsisf>
    80002990:	00050593          	mv	a1,a0
    80002994:	00090513          	mv	a0,s2
    80002998:	110090ef          	jal	ra,8000baa8 <__subsf3>
    8000299c:	0000b597          	auipc	a1,0xb
    800029a0:	3cc5a583          	lw	a1,972(a1) # 8000dd68 <__clz_tab+0x248>
    800029a4:	468080ef          	jal	ra,8000ae0c <__gesf2>
    800029a8:	00054463          	bltz	a0,800029b0 <_Z5roundf+0x48>
    800029ac:	0014849b          	addiw	s1,s1,1
    800029b0:	01813083          	ld	ra,24(sp)
    800029b4:	01013403          	ld	s0,16(sp)
    800029b8:	00013903          	ld	s2,0(sp)
    800029bc:	00048513          	mv	a0,s1
    800029c0:	00813483          	ld	s1,8(sp)
    800029c4:	02010113          	addi	sp,sp,32
    800029c8:	00008067          	ret

00000000800029cc <_Z3sinf>:
    800029cc:	fd010113          	addi	sp,sp,-48
    800029d0:	00913c23          	sd	s1,24(sp)
    800029d4:	01213823          	sd	s2,16(sp)
    800029d8:	00019497          	auipc	s1,0x19
    800029dc:	ea04a483          	lw	s1,-352(s1) # 8001b878 <pi>
    800029e0:	80000937          	lui	s2,0x80000
    800029e4:	0124c933          	xor	s2,s1,s2
    800029e8:	02813023          	sd	s0,32(sp)
    800029ec:	01313423          	sd	s3,8(sp)
    800029f0:	02113423          	sd	ra,40(sp)
    800029f4:	00050413          	mv	s0,a0
    800029f8:	00090993          	mv	s3,s2
    800029fc:	00040593          	mv	a1,s0
    80002a00:	00098513          	mv	a0,s3
    80002a04:	408080ef          	jal	ra,8000ae0c <__gesf2>
    80002a08:	02a05263          	blez	a0,80002a2c <_Z3sinf+0x60>
    80002a0c:	00048593          	mv	a1,s1
    80002a10:	00048513          	mv	a0,s1
    80002a14:	3ec070ef          	jal	ra,80009e00 <__addsf3>
    80002a18:	00050593          	mv	a1,a0
    80002a1c:	00040513          	mv	a0,s0
    80002a20:	3e0070ef          	jal	ra,80009e00 <__addsf3>
    80002a24:	00050413          	mv	s0,a0
    80002a28:	fd5ff06f          	j	800029fc <_Z3sinf+0x30>
    80002a2c:	00040593          	mv	a1,s0
    80002a30:	00048513          	mv	a0,s1
    80002a34:	550080ef          	jal	ra,8000af84 <__lesf2>
    80002a38:	02055263          	bgez	a0,80002a5c <_Z3sinf+0x90>
    80002a3c:	00048593          	mv	a1,s1
    80002a40:	00048513          	mv	a0,s1
    80002a44:	3bc070ef          	jal	ra,80009e00 <__addsf3>
    80002a48:	00050593          	mv	a1,a0
    80002a4c:	00040513          	mv	a0,s0
    80002a50:	058090ef          	jal	ra,8000baa8 <__subsf3>
    80002a54:	00050413          	mv	s0,a0
    80002a58:	fd5ff06f          	j	80002a2c <_Z3sinf+0x60>
    80002a5c:	0000b597          	auipc	a1,0xb
    80002a60:	3185a583          	lw	a1,792(a1) # 8000dd74 <__clz_tab+0x254>
    80002a64:	00090513          	mv	a0,s2
    80002a68:	10d080ef          	jal	ra,8000b374 <__mulsf3>
    80002a6c:	00040593          	mv	a1,s0
    80002a70:	39c080ef          	jal	ra,8000ae0c <__gesf2>
    80002a74:	04a05263          	blez	a0,80002ab8 <_Z3sinf+0xec>
    80002a78:	0000b597          	auipc	a1,0xb
    80002a7c:	2f05a583          	lw	a1,752(a1) # 8000dd68 <__clz_tab+0x248>
    80002a80:	00048513          	mv	a0,s1
    80002a84:	0f1080ef          	jal	ra,8000b374 <__mulsf3>
    80002a88:	00040593          	mv	a1,s0
    80002a8c:	374070ef          	jal	ra,80009e00 <__addsf3>
    80002a90:	0ec000ef          	jal	ra,80002b7c <_Z3cosf>
    80002a94:	800007b7          	lui	a5,0x80000
    80002a98:	00f54533          	xor	a0,a0,a5
    80002a9c:	02813083          	ld	ra,40(sp)
    80002aa0:	02013403          	ld	s0,32(sp)
    80002aa4:	01813483          	ld	s1,24(sp)
    80002aa8:	01013903          	ld	s2,16(sp)
    80002aac:	00813983          	ld	s3,8(sp)
    80002ab0:	03010113          	addi	sp,sp,48
    80002ab4:	00008067          	ret
    80002ab8:	0000b597          	auipc	a1,0xb
    80002abc:	2bc5a583          	lw	a1,700(a1) # 8000dd74 <__clz_tab+0x254>
    80002ac0:	00048513          	mv	a0,s1
    80002ac4:	0b1080ef          	jal	ra,8000b374 <__mulsf3>
    80002ac8:	00040593          	mv	a1,s0
    80002acc:	4b8080ef          	jal	ra,8000af84 <__lesf2>
    80002ad0:	02055e63          	bgez	a0,80002b0c <_Z3sinf+0x140>
    80002ad4:	0000b597          	auipc	a1,0xb
    80002ad8:	2945a583          	lw	a1,660(a1) # 8000dd68 <__clz_tab+0x248>
    80002adc:	00048513          	mv	a0,s1
    80002ae0:	095080ef          	jal	ra,8000b374 <__mulsf3>
    80002ae4:	00050593          	mv	a1,a0
    80002ae8:	00040513          	mv	a0,s0
    80002aec:	7bd080ef          	jal	ra,8000baa8 <__subsf3>
    80002af0:	02013403          	ld	s0,32(sp)
    80002af4:	02813083          	ld	ra,40(sp)
    80002af8:	01813483          	ld	s1,24(sp)
    80002afc:	01013903          	ld	s2,16(sp)
    80002b00:	00813983          	ld	s3,8(sp)
    80002b04:	03010113          	addi	sp,sp,48
    80002b08:	0740006f          	j	80002b7c <_Z3cosf>
    80002b0c:	00040593          	mv	a1,s0
    80002b10:	00040513          	mv	a0,s0
    80002b14:	061080ef          	jal	ra,8000b374 <__mulsf3>
    80002b18:	00050493          	mv	s1,a0
    80002b1c:	00040513          	mv	a0,s0
    80002b20:	5bd070ef          	jal	ra,8000a8dc <__extendsfdf2>
    80002b24:	0000b597          	auipc	a1,0xb
    80002b28:	2545a583          	lw	a1,596(a1) # 8000dd78 <__clz_tab+0x258>
    80002b2c:	00050913          	mv	s2,a0
    80002b30:	00048513          	mv	a0,s1
    80002b34:	275070ef          	jal	ra,8000a5a8 <__divsf3>
    80002b38:	5a5070ef          	jal	ra,8000a8dc <__extendsfdf2>
    80002b3c:	0000b597          	auipc	a1,0xb
    80002b40:	0f45b583          	ld	a1,244(a1) # 8000dc30 <__clz_tab+0x110>
    80002b44:	655060ef          	jal	ra,80009998 <__adddf3>
    80002b48:	00048593          	mv	a1,s1
    80002b4c:	00050993          	mv	s3,a0
    80002b50:	00040513          	mv	a0,s0
    80002b54:	021080ef          	jal	ra,8000b374 <__mulsf3>
    80002b58:	585070ef          	jal	ra,8000a8dc <__extendsfdf2>
    80002b5c:	00050593          	mv	a1,a0
    80002b60:	00098513          	mv	a0,s3
    80002b64:	4e4080ef          	jal	ra,8000b048 <__muldf3>
    80002b68:	00050593          	mv	a1,a0
    80002b6c:	00090513          	mv	a0,s2
    80002b70:	2b1080ef          	jal	ra,8000b620 <__subdf3>
    80002b74:	3a4090ef          	jal	ra,8000bf18 <__truncdfsf2>
    80002b78:	f25ff06f          	j	80002a9c <_Z3sinf+0xd0>

0000000080002b7c <_Z3cosf>:
    80002b7c:	fd010113          	addi	sp,sp,-48
    80002b80:	00913c23          	sd	s1,24(sp)
    80002b84:	01213823          	sd	s2,16(sp)
    80002b88:	00019497          	auipc	s1,0x19
    80002b8c:	cf04a483          	lw	s1,-784(s1) # 8001b878 <pi>
    80002b90:	80000937          	lui	s2,0x80000
    80002b94:	0124c933          	xor	s2,s1,s2
    80002b98:	02813023          	sd	s0,32(sp)
    80002b9c:	01313423          	sd	s3,8(sp)
    80002ba0:	02113423          	sd	ra,40(sp)
    80002ba4:	00050413          	mv	s0,a0
    80002ba8:	00090993          	mv	s3,s2
    80002bac:	00040593          	mv	a1,s0
    80002bb0:	00098513          	mv	a0,s3
    80002bb4:	258080ef          	jal	ra,8000ae0c <__gesf2>
    80002bb8:	02a05263          	blez	a0,80002bdc <_Z3cosf+0x60>
    80002bbc:	00048593          	mv	a1,s1
    80002bc0:	00048513          	mv	a0,s1
    80002bc4:	23c070ef          	jal	ra,80009e00 <__addsf3>
    80002bc8:	00050593          	mv	a1,a0
    80002bcc:	00040513          	mv	a0,s0
    80002bd0:	230070ef          	jal	ra,80009e00 <__addsf3>
    80002bd4:	00050413          	mv	s0,a0
    80002bd8:	fd5ff06f          	j	80002bac <_Z3cosf+0x30>
    80002bdc:	00040593          	mv	a1,s0
    80002be0:	00048513          	mv	a0,s1
    80002be4:	3a0080ef          	jal	ra,8000af84 <__lesf2>
    80002be8:	02055263          	bgez	a0,80002c0c <_Z3cosf+0x90>
    80002bec:	00048593          	mv	a1,s1
    80002bf0:	00048513          	mv	a0,s1
    80002bf4:	20c070ef          	jal	ra,80009e00 <__addsf3>
    80002bf8:	00050593          	mv	a1,a0
    80002bfc:	00040513          	mv	a0,s0
    80002c00:	6a9080ef          	jal	ra,8000baa8 <__subsf3>
    80002c04:	00050413          	mv	s0,a0
    80002c08:	fd5ff06f          	j	80002bdc <_Z3cosf+0x60>
    80002c0c:	0000b597          	auipc	a1,0xb
    80002c10:	1685a583          	lw	a1,360(a1) # 8000dd74 <__clz_tab+0x254>
    80002c14:	00090513          	mv	a0,s2
    80002c18:	75c080ef          	jal	ra,8000b374 <__mulsf3>
    80002c1c:	00040593          	mv	a1,s0
    80002c20:	1ec080ef          	jal	ra,8000ae0c <__gesf2>
    80002c24:	02a05c63          	blez	a0,80002c5c <_Z3cosf+0xe0>
    80002c28:	0000b597          	auipc	a1,0xb
    80002c2c:	1405a583          	lw	a1,320(a1) # 8000dd68 <__clz_tab+0x248>
    80002c30:	00048513          	mv	a0,s1
    80002c34:	740080ef          	jal	ra,8000b374 <__mulsf3>
    80002c38:	00040593          	mv	a1,s0
    80002c3c:	1c4070ef          	jal	ra,80009e00 <__addsf3>
    80002c40:	02013403          	ld	s0,32(sp)
    80002c44:	02813083          	ld	ra,40(sp)
    80002c48:	01813483          	ld	s1,24(sp)
    80002c4c:	01013903          	ld	s2,16(sp)
    80002c50:	00813983          	ld	s3,8(sp)
    80002c54:	03010113          	addi	sp,sp,48
    80002c58:	d75ff06f          	j	800029cc <_Z3sinf>
    80002c5c:	0000b597          	auipc	a1,0xb
    80002c60:	1185a583          	lw	a1,280(a1) # 8000dd74 <__clz_tab+0x254>
    80002c64:	00048513          	mv	a0,s1
    80002c68:	70c080ef          	jal	ra,8000b374 <__mulsf3>
    80002c6c:	00040593          	mv	a1,s0
    80002c70:	314080ef          	jal	ra,8000af84 <__lesf2>
    80002c74:	04055463          	bgez	a0,80002cbc <_Z3cosf+0x140>
    80002c78:	0000b597          	auipc	a1,0xb
    80002c7c:	0f05a583          	lw	a1,240(a1) # 8000dd68 <__clz_tab+0x248>
    80002c80:	00048513          	mv	a0,s1
    80002c84:	6f0080ef          	jal	ra,8000b374 <__mulsf3>
    80002c88:	00050593          	mv	a1,a0
    80002c8c:	00040513          	mv	a0,s0
    80002c90:	619080ef          	jal	ra,8000baa8 <__subsf3>
    80002c94:	d39ff0ef          	jal	ra,800029cc <_Z3sinf>
    80002c98:	800007b7          	lui	a5,0x80000
    80002c9c:	00f54533          	xor	a0,a0,a5
    80002ca0:	02813083          	ld	ra,40(sp)
    80002ca4:	02013403          	ld	s0,32(sp)
    80002ca8:	01813483          	ld	s1,24(sp)
    80002cac:	01013903          	ld	s2,16(sp)
    80002cb0:	00813983          	ld	s3,8(sp)
    80002cb4:	03010113          	addi	sp,sp,48
    80002cb8:	00008067          	ret
    80002cbc:	00040593          	mv	a1,s0
    80002cc0:	00040513          	mv	a0,s0
    80002cc4:	6b0080ef          	jal	ra,8000b374 <__mulsf3>
    80002cc8:	0000b597          	auipc	a1,0xb
    80002ccc:	0b45a583          	lw	a1,180(a1) # 8000dd7c <__clz_tab+0x25c>
    80002cd0:	00050413          	mv	s0,a0
    80002cd4:	0d5070ef          	jal	ra,8000a5a8 <__divsf3>
    80002cd8:	405070ef          	jal	ra,8000a8dc <__extendsfdf2>
    80002cdc:	00050593          	mv	a1,a0
    80002ce0:	0000b517          	auipc	a0,0xb
    80002ce4:	f5853503          	ld	a0,-168(a0) # 8000dc38 <__clz_tab+0x118>
    80002ce8:	139080ef          	jal	ra,8000b620 <__subdf3>
    80002cec:	00040593          	mv	a1,s0
    80002cf0:	00050493          	mv	s1,a0
    80002cf4:	00040513          	mv	a0,s0
    80002cf8:	67c080ef          	jal	ra,8000b374 <__mulsf3>
    80002cfc:	3e1070ef          	jal	ra,8000a8dc <__extendsfdf2>
    80002d00:	00050593          	mv	a1,a0
    80002d04:	00048513          	mv	a0,s1
    80002d08:	340080ef          	jal	ra,8000b048 <__muldf3>
    80002d0c:	00050493          	mv	s1,a0
    80002d10:	0000b597          	auipc	a1,0xb
    80002d14:	0585a583          	lw	a1,88(a1) # 8000dd68 <__clz_tab+0x248>
    80002d18:	00040513          	mv	a0,s0
    80002d1c:	658080ef          	jal	ra,8000b374 <__mulsf3>
    80002d20:	00050593          	mv	a1,a0
    80002d24:	0000b517          	auipc	a0,0xb
    80002d28:	05c52503          	lw	a0,92(a0) # 8000dd80 <__clz_tab+0x260>
    80002d2c:	57d080ef          	jal	ra,8000baa8 <__subsf3>
    80002d30:	3ad070ef          	jal	ra,8000a8dc <__extendsfdf2>
    80002d34:	00050593          	mv	a1,a0
    80002d38:	00048513          	mv	a0,s1
    80002d3c:	45d060ef          	jal	ra,80009998 <__adddf3>
    80002d40:	1d8090ef          	jal	ra,8000bf18 <__truncdfsf2>
    80002d44:	f5dff06f          	j	80002ca0 <_Z3cosf+0x124>

0000000080002d48 <_Z4lineiiiii>:
    80002d48:	fc010113          	addi	sp,sp,-64
    80002d4c:	02913423          	sd	s1,40(sp)
    80002d50:	00050493          	mv	s1,a0
    80002d54:	40a6053b          	subw	a0,a2,a0
    80002d58:	02113c23          	sd	ra,56(sp)
    80002d5c:	02813823          	sd	s0,48(sp)
    80002d60:	03213023          	sd	s2,32(sp)
    80002d64:	00058413          	mv	s0,a1
    80002d68:	00068913          	mv	s2,a3
    80002d6c:	01313c23          	sd	s3,24(sp)
    80002d70:	01413823          	sd	s4,16(sp)
    80002d74:	01513423          	sd	s5,8(sp)
    80002d78:	01613023          	sd	s6,0(sp)
    80002d7c:	00070a93          	mv	s5,a4
    80002d80:	5dd070ef          	jal	ra,8000ab5c <__floatsisf>
    80002d84:	00050993          	mv	s3,a0
    80002d88:	4089053b          	subw	a0,s2,s0
    80002d8c:	5d1070ef          	jal	ra,8000ab5c <__floatsisf>
    80002d90:	00050913          	mv	s2,a0
    80002d94:	0000b597          	auipc	a1,0xb
    80002d98:	ff05a583          	lw	a1,-16(a1) # 8000dd84 <__clz_tab+0x264>
    80002d9c:	00098513          	mv	a0,s3
    80002da0:	009070ef          	jal	ra,8000a5a8 <__divsf3>
    80002da4:	0000b597          	auipc	a1,0xb
    80002da8:	fe05a583          	lw	a1,-32(a1) # 8000dd84 <__clz_tab+0x264>
    80002dac:	00050a13          	mv	s4,a0
    80002db0:	00090513          	mv	a0,s2
    80002db4:	7f4070ef          	jal	ra,8000a5a8 <__divsf3>
    80002db8:	00050993          	mv	s3,a0
    80002dbc:	00048513          	mv	a0,s1
    80002dc0:	59d070ef          	jal	ra,8000ab5c <__floatsisf>
    80002dc4:	00050493          	mv	s1,a0
    80002dc8:	00040513          	mv	a0,s0
    80002dcc:	591070ef          	jal	ra,8000ab5c <__floatsisf>
    80002dd0:	00050413          	mv	s0,a0
    80002dd4:	03300913          	li	s2,51
    80002dd8:	00048513          	mv	a0,s1
    80002ddc:	b8dff0ef          	jal	ra,80002968 <_Z5roundf>
    80002de0:	00050b13          	mv	s6,a0
    80002de4:	00040513          	mv	a0,s0
    80002de8:	b81ff0ef          	jal	ra,80002968 <_Z5roundf>
    80002dec:	00050593          	mv	a1,a0
    80002df0:	000b0513          	mv	a0,s6
    80002df4:	2a0020ef          	jal	ra,80005094 <_Z5pointii>
    80002df8:	01550023          	sb	s5,0(a0)
    80002dfc:	000a0593          	mv	a1,s4
    80002e00:	00048513          	mv	a0,s1
    80002e04:	7fd060ef          	jal	ra,80009e00 <__addsf3>
    80002e08:	00050493          	mv	s1,a0
    80002e0c:	00098593          	mv	a1,s3
    80002e10:	00040513          	mv	a0,s0
    80002e14:	7ed060ef          	jal	ra,80009e00 <__addsf3>
    80002e18:	fff9091b          	addiw	s2,s2,-1
    80002e1c:	00050413          	mv	s0,a0
    80002e20:	fa091ce3          	bnez	s2,80002dd8 <_Z4lineiiiii+0x90>
    80002e24:	03813083          	ld	ra,56(sp)
    80002e28:	03013403          	ld	s0,48(sp)
    80002e2c:	02813483          	ld	s1,40(sp)
    80002e30:	02013903          	ld	s2,32(sp)
    80002e34:	01813983          	ld	s3,24(sp)
    80002e38:	01013a03          	ld	s4,16(sp)
    80002e3c:	00813a83          	ld	s5,8(sp)
    80002e40:	00013b03          	ld	s6,0(sp)
    80002e44:	04010113          	addi	sp,sp,64
    80002e48:	00008067          	ret

0000000080002e4c <_Z3arcffiiii>:
    80002e4c:	f9010113          	addi	sp,sp,-112
    80002e50:	06813023          	sd	s0,96(sp)
    80002e54:	00050413          	mv	s0,a0
    80002e58:	00058513          	mv	a0,a1
    80002e5c:	00040593          	mv	a1,s0
    80002e60:	06113423          	sd	ra,104(sp)
    80002e64:	05213823          	sd	s2,80(sp)
    80002e68:	05313423          	sd	s3,72(sp)
    80002e6c:	05413023          	sd	s4,64(sp)
    80002e70:	03713423          	sd	s7,40(sp)
    80002e74:	03813023          	sd	s8,32(sp)
    80002e78:	01913c23          	sd	s9,24(sp)
    80002e7c:	00060c13          	mv	s8,a2
    80002e80:	00068b93          	mv	s7,a3
    80002e84:	00070c93          	mv	s9,a4
    80002e88:	00078a13          	mv	s4,a5
    80002e8c:	04913c23          	sd	s1,88(sp)
    80002e90:	03513c23          	sd	s5,56(sp)
    80002e94:	03613823          	sd	s6,48(sp)
    80002e98:	411080ef          	jal	ra,8000baa8 <__subsf3>
    80002e9c:	0000b597          	auipc	a1,0xb
    80002ea0:	eec5a583          	lw	a1,-276(a1) # 8000dd88 <__clz_tab+0x268>
    80002ea4:	704070ef          	jal	ra,8000a5a8 <__divsf3>
    80002ea8:	00050993          	mv	s3,a0
    80002eac:	03d00913          	li	s2,61
    80002eb0:	00040513          	mv	a0,s0
    80002eb4:	cc9ff0ef          	jal	ra,80002b7c <_Z3cosf>
    80002eb8:	00050b13          	mv	s6,a0
    80002ebc:	000c8513          	mv	a0,s9
    80002ec0:	49d070ef          	jal	ra,8000ab5c <__floatsisf>
    80002ec4:	00050493          	mv	s1,a0
    80002ec8:	000c0513          	mv	a0,s8
    80002ecc:	491070ef          	jal	ra,8000ab5c <__floatsisf>
    80002ed0:	00050a93          	mv	s5,a0
    80002ed4:	00048593          	mv	a1,s1
    80002ed8:	000b0513          	mv	a0,s6
    80002edc:	498080ef          	jal	ra,8000b374 <__mulsf3>
    80002ee0:	00050593          	mv	a1,a0
    80002ee4:	000a8513          	mv	a0,s5
    80002ee8:	719060ef          	jal	ra,80009e00 <__addsf3>
    80002eec:	a7dff0ef          	jal	ra,80002968 <_Z5roundf>
    80002ef0:	00050a93          	mv	s5,a0
    80002ef4:	00040513          	mv	a0,s0
    80002ef8:	ad5ff0ef          	jal	ra,800029cc <_Z3sinf>
    80002efc:	00050593          	mv	a1,a0
    80002f00:	000b8513          	mv	a0,s7
    80002f04:	00b13423          	sd	a1,8(sp)
    80002f08:	455070ef          	jal	ra,8000ab5c <__floatsisf>
    80002f0c:	00813583          	ld	a1,8(sp)
    80002f10:	00050b13          	mv	s6,a0
    80002f14:	00048513          	mv	a0,s1
    80002f18:	45c080ef          	jal	ra,8000b374 <__mulsf3>
    80002f1c:	00050593          	mv	a1,a0
    80002f20:	000b0513          	mv	a0,s6
    80002f24:	6dd060ef          	jal	ra,80009e00 <__addsf3>
    80002f28:	a41ff0ef          	jal	ra,80002968 <_Z5roundf>
    80002f2c:	00050593          	mv	a1,a0
    80002f30:	000a8513          	mv	a0,s5
    80002f34:	160020ef          	jal	ra,80005094 <_Z5pointii>
    80002f38:	01450023          	sb	s4,0(a0)
    80002f3c:	00098593          	mv	a1,s3
    80002f40:	00040513          	mv	a0,s0
    80002f44:	6bd060ef          	jal	ra,80009e00 <__addsf3>
    80002f48:	fff9091b          	addiw	s2,s2,-1
    80002f4c:	00050413          	mv	s0,a0
    80002f50:	f60910e3          	bnez	s2,80002eb0 <_Z3arcffiiii+0x64>
    80002f54:	06813083          	ld	ra,104(sp)
    80002f58:	06013403          	ld	s0,96(sp)
    80002f5c:	05813483          	ld	s1,88(sp)
    80002f60:	05013903          	ld	s2,80(sp)
    80002f64:	04813983          	ld	s3,72(sp)
    80002f68:	04013a03          	ld	s4,64(sp)
    80002f6c:	03813a83          	ld	s5,56(sp)
    80002f70:	03013b03          	ld	s6,48(sp)
    80002f74:	02813b83          	ld	s7,40(sp)
    80002f78:	02013c03          	ld	s8,32(sp)
    80002f7c:	01813c83          	ld	s9,24(sp)
    80002f80:	07010113          	addi	sp,sp,112
    80002f84:	00008067          	ret

0000000080002f88 <_Z4filliiPFiiiE>:
    80002f88:	f8010113          	addi	sp,sp,-128
    80002f8c:	05313c23          	sd	s3,88(sp)
    80002f90:	00351793          	slli	a5,a0,0x3
    80002f94:	00018997          	auipc	s3,0x18
    80002f98:	0ac98993          	addi	s3,s3,172 # 8001b040 <_ZL6canvas>
    80002f9c:	00f987b3          	add	a5,s3,a5
    80002fa0:	0007b783          	ld	a5,0(a5) # ffffffff80000000 <_pmem_end+0xfffffffef8000000>
    80002fa4:	06813823          	sd	s0,112(sp)
    80002fa8:	05513423          	sd	s5,72(sp)
    80002fac:	03713c23          	sd	s7,56(sp)
    80002fb0:	03a13023          	sd	s10,32(sp)
    80002fb4:	01b13c23          	sd	s11,24(sp)
    80002fb8:	00b787b3          	add	a5,a5,a1
    80002fbc:	06113c23          	sd	ra,120(sp)
    80002fc0:	06913423          	sd	s1,104(sp)
    80002fc4:	07213023          	sd	s2,96(sp)
    80002fc8:	05413823          	sd	s4,80(sp)
    80002fcc:	05613023          	sd	s6,64(sp)
    80002fd0:	03813823          	sd	s8,48(sp)
    80002fd4:	03913423          	sd	s9,40(sp)
    80002fd8:	00751513          	slli	a0,a0,0x7
    80002fdc:	0007cc83          	lbu	s9,0(a5)
    80002fe0:	00a5e5b3          	or	a1,a1,a0
    80002fe4:	00060d93          	mv	s11,a2
    80002fe8:	32b99023          	sh	a1,800(s3)
    80002fec:	00100413          	li	s0,1
    80002ff0:	00000b93          	li	s7,0
    80002ff4:	06300a93          	li	s5,99
    80002ff8:	fff00d13          	li	s10,-1
    80002ffc:	001b9793          	slli	a5,s7,0x1
    80003000:	00f987b3          	add	a5,s3,a5
    80003004:	32079903          	lh	s2,800(a5)
    80003008:	001b8b93          	addi	s7,s7,1
    8000300c:	1ffbfb93          	andi	s7,s7,511
    80003010:	07f97b13          	andi	s6,s2,127
    80003014:	40795c13          	srai	s8,s2,0x7
    80003018:	000b0593          	mv	a1,s6
    8000301c:	000c0513          	mv	a0,s8
    80003020:	074020ef          	jal	ra,80005094 <_Z5pointii>
    80003024:	00a13423          	sd	a0,8(sp)
    80003028:	000b0593          	mv	a1,s6
    8000302c:	000c0513          	mv	a0,s8
    80003030:	000d80e7          	jalr	s11
    80003034:	00813783          	ld	a5,8(sp)
    80003038:	40795a1b          	sraiw	s4,s2,0x7
    8000303c:	000b0493          	mv	s1,s6
    80003040:	00a78023          	sb	a0,0(a5)
    80003044:	001a079b          	addiw	a5,s4,1
    80003048:	0007851b          	sext.w	a0,a5
    8000304c:	00f13423          	sd	a5,8(sp)
    80003050:	02aaee63          	bltu	s5,a0,8000308c <_Z4filliiPFiiiE+0x104>
    80003054:	036aec63          	bltu	s5,s6,8000308c <_Z4filliiPFiiiE+0x104>
    80003058:	000b0593          	mv	a1,s6
    8000305c:	038020ef          	jal	ra,80005094 <_Z5pointii>
    80003060:	00054703          	lbu	a4,0(a0)
    80003064:	00813783          	ld	a5,8(sp)
    80003068:	03971263          	bne	a4,s9,8000308c <_Z4filliiPFiiiE+0x104>
    8000306c:	00141713          	slli	a4,s0,0x1
    80003070:	0077979b          	slliw	a5,a5,0x7
    80003074:	00e98733          	add	a4,s3,a4
    80003078:	00fb67b3          	or	a5,s6,a5
    8000307c:	00140413          	addi	s0,s0,1
    80003080:	01a50023          	sb	s10,0(a0)
    80003084:	32f71023          	sh	a5,800(a4)
    80003088:	1ff47413          	andi	s0,s0,511
    8000308c:	fffa051b          	addiw	a0,s4,-1
    80003090:	00050a13          	mv	s4,a0
    80003094:	02aaec63          	bltu	s5,a0,800030cc <_Z4filliiPFiiiE+0x144>
    80003098:	029aea63          	bltu	s5,s1,800030cc <_Z4filliiPFiiiE+0x144>
    8000309c:	00048593          	mv	a1,s1
    800030a0:	7f5010ef          	jal	ra,80005094 <_Z5pointii>
    800030a4:	00054783          	lbu	a5,0(a0)
    800030a8:	03979263          	bne	a5,s9,800030cc <_Z4filliiPFiiiE+0x144>
    800030ac:	00141793          	slli	a5,s0,0x1
    800030b0:	007a1a1b          	slliw	s4,s4,0x7
    800030b4:	00f987b3          	add	a5,s3,a5
    800030b8:	014b6a33          	or	s4,s6,s4
    800030bc:	00140413          	addi	s0,s0,1
    800030c0:	01a50023          	sb	s10,0(a0)
    800030c4:	33479023          	sh	s4,800(a5)
    800030c8:	1ff47413          	andi	s0,s0,511
    800030cc:	098ae463          	bltu	s5,s8,80003154 <_Z4filliiPFiiiE+0x1cc>
    800030d0:	00148a13          	addi	s4,s1,1
    800030d4:	034acc63          	blt	s5,s4,8000310c <_Z4filliiPFiiiE+0x184>
    800030d8:	000a0593          	mv	a1,s4
    800030dc:	000c0513          	mv	a0,s8
    800030e0:	7b5010ef          	jal	ra,80005094 <_Z5pointii>
    800030e4:	00054783          	lbu	a5,0(a0)
    800030e8:	03979263          	bne	a5,s9,8000310c <_Z4filliiPFiiiE+0x184>
    800030ec:	00141793          	slli	a5,s0,0x1
    800030f0:	f8097713          	andi	a4,s2,-128
    800030f4:	00f987b3          	add	a5,s3,a5
    800030f8:	01476733          	or	a4,a4,s4
    800030fc:	00140413          	addi	s0,s0,1
    80003100:	01a50023          	sb	s10,0(a0)
    80003104:	32e79023          	sh	a4,800(a5)
    80003108:	1ff47413          	andi	s0,s0,511
    8000310c:	fffb0b1b          	addiw	s6,s6,-1
    80003110:	030b1b13          	slli	s6,s6,0x30
    80003114:	030b5b13          	srli	s6,s6,0x30
    80003118:	036aee63          	bltu	s5,s6,80003154 <_Z4filliiPFiiiE+0x1cc>
    8000311c:	fff4849b          	addiw	s1,s1,-1
    80003120:	00048593          	mv	a1,s1
    80003124:	000c0513          	mv	a0,s8
    80003128:	76d010ef          	jal	ra,80005094 <_Z5pointii>
    8000312c:	00054783          	lbu	a5,0(a0)
    80003130:	03979263          	bne	a5,s9,80003154 <_Z4filliiPFiiiE+0x1cc>
    80003134:	00141793          	slli	a5,s0,0x1
    80003138:	f8097913          	andi	s2,s2,-128
    8000313c:	00f987b3          	add	a5,s3,a5
    80003140:	00996933          	or	s2,s2,s1
    80003144:	00140413          	addi	s0,s0,1
    80003148:	01a50023          	sb	s10,0(a0)
    8000314c:	33279023          	sh	s2,800(a5)
    80003150:	1ff47413          	andi	s0,s0,511
    80003154:	eb7414e3          	bne	s0,s7,80002ffc <_Z4filliiPFiiiE+0x74>
    80003158:	07813083          	ld	ra,120(sp)
    8000315c:	07013403          	ld	s0,112(sp)
    80003160:	06813483          	ld	s1,104(sp)
    80003164:	06013903          	ld	s2,96(sp)
    80003168:	05813983          	ld	s3,88(sp)
    8000316c:	05013a03          	ld	s4,80(sp)
    80003170:	04813a83          	ld	s5,72(sp)
    80003174:	04013b03          	ld	s6,64(sp)
    80003178:	03813b83          	ld	s7,56(sp)
    8000317c:	03013c03          	ld	s8,48(sp)
    80003180:	02813c83          	ld	s9,40(sp)
    80003184:	02013d03          	ld	s10,32(sp)
    80003188:	01813d83          	ld	s11,24(sp)
    8000318c:	08010113          	addi	sp,sp,128
    80003190:	00008067          	ret

0000000080003194 <_Z3numiiii>:
    80003194:	f9010113          	addi	sp,sp,-112
    80003198:	06813023          	sd	s0,96(sp)
    8000319c:	04913c23          	sd	s1,88(sp)
    800031a0:	05213823          	sd	s2,80(sp)
    800031a4:	00068413          	mv	s0,a3
    800031a8:	00058913          	mv	s2,a1
    800031ac:	00050493          	mv	s1,a0
    800031b0:	0000a597          	auipc	a1,0xa
    800031b4:	b1858593          	addi	a1,a1,-1256 # 8000ccc8 <errpat+0x6f0>
    800031b8:	00010513          	mv	a0,sp
    800031bc:	05413023          	sd	s4,64(sp)
    800031c0:	03513c23          	sd	s5,56(sp)
    800031c4:	03613823          	sd	s6,48(sp)
    800031c8:	03713423          	sd	s7,40(sp)
    800031cc:	03813023          	sd	s8,32(sp)
    800031d0:	01913c23          	sd	s9,24(sp)
    800031d4:	06113423          	sd	ra,104(sp)
    800031d8:	05313423          	sd	s3,72(sp)
    800031dc:	01a13823          	sd	s10,16(sp)
    800031e0:	00010a93          	mv	s5,sp
    800031e4:	49c060ef          	jal	ra,80009680 <sprintf_>
    800031e8:	0000ac97          	auipc	s9,0xa
    800031ec:	d48c8c93          	addi	s9,s9,-696 # 8000cf30 <_ZZ3numiiiiE1t>
    800031f0:	ffc90b1b          	addiw	s6,s2,-4
    800031f4:	0ff47413          	andi	s0,s0,255
    800031f8:	ffe90a1b          	addiw	s4,s2,-2
    800031fc:	ffd90b9b          	addiw	s7,s2,-3
    80003200:	fff90c1b          	addiw	s8,s2,-1
    80003204:	000ac783          	lbu	a5,0(s5)
    80003208:	1a078c63          	beqz	a5,800033c0 <_Z3numiiii+0x22c>
    8000320c:	fd07879b          	addiw	a5,a5,-48
    80003210:	00fc87b3          	add	a5,s9,a5
    80003214:	0007c983          	lbu	s3,0(a5)
    80003218:	0019f793          	andi	a5,s3,1
    8000321c:	02078c63          	beqz	a5,80003254 <_Z3numiiii+0xc0>
    80003220:	000b0593          	mv	a1,s6
    80003224:	00048513          	mv	a0,s1
    80003228:	66d010ef          	jal	ra,80005094 <_Z5pointii>
    8000322c:	00850023          	sb	s0,0(a0)
    80003230:	000b0593          	mv	a1,s6
    80003234:	0014851b          	addiw	a0,s1,1
    80003238:	65d010ef          	jal	ra,80005094 <_Z5pointii>
    8000323c:	00048d1b          	sext.w	s10,s1
    80003240:	00850023          	sb	s0,0(a0)
    80003244:	000b0593          	mv	a1,s6
    80003248:	002d051b          	addiw	a0,s10,2
    8000324c:	649010ef          	jal	ra,80005094 <_Z5pointii>
    80003250:	00850023          	sb	s0,0(a0)
    80003254:	0029f793          	andi	a5,s3,2
    80003258:	02078c63          	beqz	a5,80003290 <_Z3numiiii+0xfc>
    8000325c:	00248d1b          	addiw	s10,s1,2
    80003260:	000a0593          	mv	a1,s4
    80003264:	000d0513          	mv	a0,s10
    80003268:	62d010ef          	jal	ra,80005094 <_Z5pointii>
    8000326c:	00850023          	sb	s0,0(a0)
    80003270:	000b8593          	mv	a1,s7
    80003274:	000d0513          	mv	a0,s10
    80003278:	61d010ef          	jal	ra,80005094 <_Z5pointii>
    8000327c:	00850023          	sb	s0,0(a0)
    80003280:	000b0593          	mv	a1,s6
    80003284:	000d0513          	mv	a0,s10
    80003288:	60d010ef          	jal	ra,80005094 <_Z5pointii>
    8000328c:	00850023          	sb	s0,0(a0)
    80003290:	0049f793          	andi	a5,s3,4
    80003294:	02078a63          	beqz	a5,800032c8 <_Z3numiiii+0x134>
    80003298:	000a0593          	mv	a1,s4
    8000329c:	00048513          	mv	a0,s1
    800032a0:	5f5010ef          	jal	ra,80005094 <_Z5pointii>
    800032a4:	00850023          	sb	s0,0(a0)
    800032a8:	000b8593          	mv	a1,s7
    800032ac:	00048513          	mv	a0,s1
    800032b0:	5e5010ef          	jal	ra,80005094 <_Z5pointii>
    800032b4:	00850023          	sb	s0,0(a0)
    800032b8:	000b0593          	mv	a1,s6
    800032bc:	00048513          	mv	a0,s1
    800032c0:	5d5010ef          	jal	ra,80005094 <_Z5pointii>
    800032c4:	00850023          	sb	s0,0(a0)
    800032c8:	0089f793          	andi	a5,s3,8
    800032cc:	02078c63          	beqz	a5,80003304 <_Z3numiiii+0x170>
    800032d0:	000a0593          	mv	a1,s4
    800032d4:	00048513          	mv	a0,s1
    800032d8:	5bd010ef          	jal	ra,80005094 <_Z5pointii>
    800032dc:	00850023          	sb	s0,0(a0)
    800032e0:	000a0593          	mv	a1,s4
    800032e4:	0014851b          	addiw	a0,s1,1
    800032e8:	5ad010ef          	jal	ra,80005094 <_Z5pointii>
    800032ec:	00048d1b          	sext.w	s10,s1
    800032f0:	00850023          	sb	s0,0(a0)
    800032f4:	000a0593          	mv	a1,s4
    800032f8:	002d051b          	addiw	a0,s10,2
    800032fc:	599010ef          	jal	ra,80005094 <_Z5pointii>
    80003300:	00850023          	sb	s0,0(a0)
    80003304:	0109f793          	andi	a5,s3,16
    80003308:	02078c63          	beqz	a5,80003340 <_Z3numiiii+0x1ac>
    8000330c:	00248d1b          	addiw	s10,s1,2
    80003310:	00090593          	mv	a1,s2
    80003314:	000d0513          	mv	a0,s10
    80003318:	57d010ef          	jal	ra,80005094 <_Z5pointii>
    8000331c:	00850023          	sb	s0,0(a0)
    80003320:	000c0593          	mv	a1,s8
    80003324:	000d0513          	mv	a0,s10
    80003328:	56d010ef          	jal	ra,80005094 <_Z5pointii>
    8000332c:	00850023          	sb	s0,0(a0)
    80003330:	000a0593          	mv	a1,s4
    80003334:	000d0513          	mv	a0,s10
    80003338:	55d010ef          	jal	ra,80005094 <_Z5pointii>
    8000333c:	00850023          	sb	s0,0(a0)
    80003340:	0209f793          	andi	a5,s3,32
    80003344:	02078a63          	beqz	a5,80003378 <_Z3numiiii+0x1e4>
    80003348:	00090593          	mv	a1,s2
    8000334c:	00048513          	mv	a0,s1
    80003350:	545010ef          	jal	ra,80005094 <_Z5pointii>
    80003354:	00850023          	sb	s0,0(a0)
    80003358:	000c0593          	mv	a1,s8
    8000335c:	00048513          	mv	a0,s1
    80003360:	535010ef          	jal	ra,80005094 <_Z5pointii>
    80003364:	00850023          	sb	s0,0(a0)
    80003368:	000a0593          	mv	a1,s4
    8000336c:	00048513          	mv	a0,s1
    80003370:	525010ef          	jal	ra,80005094 <_Z5pointii>
    80003374:	00850023          	sb	s0,0(a0)
    80003378:	0409f993          	andi	s3,s3,64
    8000337c:	02098c63          	beqz	s3,800033b4 <_Z3numiiii+0x220>
    80003380:	00090593          	mv	a1,s2
    80003384:	00048513          	mv	a0,s1
    80003388:	50d010ef          	jal	ra,80005094 <_Z5pointii>
    8000338c:	00850023          	sb	s0,0(a0)
    80003390:	00090593          	mv	a1,s2
    80003394:	0014851b          	addiw	a0,s1,1
    80003398:	4fd010ef          	jal	ra,80005094 <_Z5pointii>
    8000339c:	0004899b          	sext.w	s3,s1
    800033a0:	00850023          	sb	s0,0(a0)
    800033a4:	00090593          	mv	a1,s2
    800033a8:	0029851b          	addiw	a0,s3,2
    800033ac:	4e9010ef          	jal	ra,80005094 <_Z5pointii>
    800033b0:	00850023          	sb	s0,0(a0)
    800033b4:	0044849b          	addiw	s1,s1,4
    800033b8:	001a8a93          	addi	s5,s5,1
    800033bc:	e49ff06f          	j	80003204 <_Z3numiiii+0x70>
    800033c0:	06813083          	ld	ra,104(sp)
    800033c4:	06013403          	ld	s0,96(sp)
    800033c8:	05813483          	ld	s1,88(sp)
    800033cc:	05013903          	ld	s2,80(sp)
    800033d0:	04813983          	ld	s3,72(sp)
    800033d4:	04013a03          	ld	s4,64(sp)
    800033d8:	03813a83          	ld	s5,56(sp)
    800033dc:	03013b03          	ld	s6,48(sp)
    800033e0:	02813b83          	ld	s7,40(sp)
    800033e4:	02013c03          	ld	s8,32(sp)
    800033e8:	01813c83          	ld	s9,24(sp)
    800033ec:	01013d03          	ld	s10,16(sp)
    800033f0:	07010113          	addi	sp,sp,112
    800033f4:	00008067          	ret

00000000800033f8 <_Z5pdrawv>:
    800033f8:	ff010113          	addi	sp,sp,-16
    800033fc:	00113423          	sd	ra,8(sp)
    80003400:	00813023          	sd	s0,0(sp)
    80003404:	3fd040ef          	jal	ra,80008000 <uptime>
    80003408:	00018797          	auipc	a5,0x18
    8000340c:	c3878793          	addi	a5,a5,-968 # 8001b040 <_ZL6canvas>
    80003410:	0000b717          	auipc	a4,0xb
    80003414:	83073703          	ld	a4,-2000(a4) # 8000dc40 <__clz_tab+0x120>
    80003418:	72e7b023          	sd	a4,1824(a5)
    8000341c:	0000b717          	auipc	a4,0xb
    80003420:	82c73703          	ld	a4,-2004(a4) # 8000dc48 <__clz_tab+0x128>
    80003424:	72e7b423          	sd	a4,1832(a5)
    80003428:	0000b717          	auipc	a4,0xb
    8000342c:	82873703          	ld	a4,-2008(a4) # 8000dc50 <__clz_tab+0x130>
    80003430:	72e7b823          	sd	a4,1840(a5)
    80003434:	001d2737          	lui	a4,0x1d2
    80003438:	71b70713          	addi	a4,a4,1819 # 1d271b <_start-0x7fe2d8e5>
    8000343c:	02071713          	slli	a4,a4,0x20
    80003440:	72e7bc23          	sd	a4,1848(a5)
    80003444:	0000b717          	auipc	a4,0xb
    80003448:	81473703          	ld	a4,-2028(a4) # 8000dc58 <__clz_tab+0x138>
    8000344c:	74e7b023          	sd	a4,1856(a5)
    80003450:	0000b717          	auipc	a4,0xb
    80003454:	81073703          	ld	a4,-2032(a4) # 8000dc60 <__clz_tab+0x140>
    80003458:	74e7b423          	sd	a4,1864(a5)
    8000345c:	0000b717          	auipc	a4,0xb
    80003460:	80c73703          	ld	a4,-2036(a4) # 8000dc68 <__clz_tab+0x148>
    80003464:	74e7b823          	sd	a4,1872(a5)
    80003468:	0000b717          	auipc	a4,0xb
    8000346c:	80873703          	ld	a4,-2040(a4) # 8000dc70 <__clz_tab+0x150>
    80003470:	74e7bc23          	sd	a4,1880(a5)
    80003474:	0005041b          	sext.w	s0,a0
    80003478:	0000a517          	auipc	a0,0xa
    8000347c:	85850513          	addi	a0,a0,-1960 # 8000ccd0 <errpat+0x6f8>
    80003480:	1b0060ef          	jal	ra,80009630 <printf_>
    80003484:	00600713          	li	a4,6
    80003488:	01e00693          	li	a3,30
    8000348c:	03e00613          	li	a2,62
    80003490:	00000593          	li	a1,0
    80003494:	04b00513          	li	a0,75
    80003498:	8b1ff0ef          	jal	ra,80002d48 <_Z4lineiiiii>
    8000349c:	0000a517          	auipc	a0,0xa
    800034a0:	84450513          	addi	a0,a0,-1980 # 8000cce0 <errpat+0x708>
    800034a4:	18c060ef          	jal	ra,80009630 <printf_>
    800034a8:	00600793          	li	a5,6
    800034ac:	01e00713          	li	a4,30
    800034b0:	00000693          	li	a3,0
    800034b4:	04400613          	li	a2,68
    800034b8:	0000b597          	auipc	a1,0xb
    800034bc:	8d45a583          	lw	a1,-1836(a1) # 8000dd8c <__clz_tab+0x26c>
    800034c0:	0000b517          	auipc	a0,0xb
    800034c4:	8d052503          	lw	a0,-1840(a0) # 8000dd90 <__clz_tab+0x270>
    800034c8:	985ff0ef          	jal	ra,80002e4c <_Z3arcffiiii>
    800034cc:	0000a517          	auipc	a0,0xa
    800034d0:	82450513          	addi	a0,a0,-2012 # 8000ccf0 <errpat+0x718>
    800034d4:	15c060ef          	jal	ra,80009630 <printf_>
    800034d8:	fffff617          	auipc	a2,0xfffff
    800034dc:	36860613          	addi	a2,a2,872 # 80002840 <_ZZ5pdrawvENUliiE_4_FUNEii>
    800034e0:	00800593          	li	a1,8
    800034e4:	03600513          	li	a0,54
    800034e8:	aa1ff0ef          	jal	ra,80002f88 <_Z4filliiPFiiiE>
    800034ec:	0000a517          	auipc	a0,0xa
    800034f0:	81450513          	addi	a0,a0,-2028 # 8000cd00 <errpat+0x728>
    800034f4:	13c060ef          	jal	ra,80009630 <printf_>
    800034f8:	00600793          	li	a5,6
    800034fc:	02200713          	li	a4,34
    80003500:	ffd00693          	li	a3,-3
    80003504:	04200613          	li	a2,66
    80003508:	0000b597          	auipc	a1,0xb
    8000350c:	88c5a583          	lw	a1,-1908(a1) # 8000dd94 <__clz_tab+0x274>
    80003510:	0000b517          	auipc	a0,0xb
    80003514:	88852503          	lw	a0,-1912(a0) # 8000dd98 <__clz_tab+0x278>
    80003518:	935ff0ef          	jal	ra,80002e4c <_Z3arcffiiii>
    8000351c:	00009517          	auipc	a0,0x9
    80003520:	7f450513          	addi	a0,a0,2036 # 8000cd10 <errpat+0x738>
    80003524:	10c060ef          	jal	ra,80009630 <printf_>
    80003528:	fffff617          	auipc	a2,0xfffff
    8000352c:	32060613          	addi	a2,a2,800 # 80002848 <_ZZ5pdrawvENUliiE0_4_FUNEii>
    80003530:	00000593          	li	a1,0
    80003534:	02400513          	li	a0,36
    80003538:	a51ff0ef          	jal	ra,80002f88 <_Z4filliiPFiiiE>
    8000353c:	00009517          	auipc	a0,0x9
    80003540:	7e450513          	addi	a0,a0,2020 # 8000cd20 <errpat+0x748>
    80003544:	0ec060ef          	jal	ra,80009630 <printf_>
    80003548:	00600713          	li	a4,6
    8000354c:	03c00693          	li	a3,60
    80003550:	03d00613          	li	a2,61
    80003554:	01e00593          	li	a1,30
    80003558:	03e00513          	li	a0,62
    8000355c:	fecff0ef          	jal	ra,80002d48 <_Z4lineiiiii>
    80003560:	00009517          	auipc	a0,0x9
    80003564:	7d050513          	addi	a0,a0,2000 # 8000cd30 <errpat+0x758>
    80003568:	0c8060ef          	jal	ra,80009630 <printf_>
    8000356c:	00600713          	li	a4,6
    80003570:	05c00693          	li	a3,92
    80003574:	04f00613          	li	a2,79
    80003578:	03c00593          	li	a1,60
    8000357c:	03d00513          	li	a0,61
    80003580:	fc8ff0ef          	jal	ra,80002d48 <_Z4lineiiiii>
    80003584:	00009517          	auipc	a0,0x9
    80003588:	7bc50513          	addi	a0,a0,1980 # 8000cd40 <errpat+0x768>
    8000358c:	0a4060ef          	jal	ra,80009630 <printf_>
    80003590:	00600713          	li	a4,6
    80003594:	04700693          	li	a3,71
    80003598:	03200613          	li	a2,50
    8000359c:	05c00593          	li	a1,92
    800035a0:	04f00513          	li	a0,79
    800035a4:	fa4ff0ef          	jal	ra,80002d48 <_Z4lineiiiii>
    800035a8:	00009517          	auipc	a0,0x9
    800035ac:	7a850513          	addi	a0,a0,1960 # 8000cd50 <errpat+0x778>
    800035b0:	080060ef          	jal	ra,80009630 <printf_>
    800035b4:	00600793          	li	a5,6
    800035b8:	02300713          	li	a4,35
    800035bc:	02400693          	li	a3,36
    800035c0:	03200613          	li	a2,50
    800035c4:	0000a597          	auipc	a1,0xa
    800035c8:	7d85a583          	lw	a1,2008(a1) # 8000dd9c <__clz_tab+0x27c>
    800035cc:	0000a517          	auipc	a0,0xa
    800035d0:	7d452503          	lw	a0,2004(a0) # 8000dda0 <__clz_tab+0x280>
    800035d4:	879ff0ef          	jal	ra,80002e4c <_Z3arcffiiii>
    800035d8:	00009517          	auipc	a0,0x9
    800035dc:	78850513          	addi	a0,a0,1928 # 8000cd60 <errpat+0x788>
    800035e0:	050060ef          	jal	ra,80009630 <printf_>
    800035e4:	00600793          	li	a5,6
    800035e8:	04300713          	li	a4,67
    800035ec:	00c00693          	li	a3,12
    800035f0:	04900613          	li	a2,73
    800035f4:	0000a597          	auipc	a1,0xa
    800035f8:	7b05a583          	lw	a1,1968(a1) # 8000dda4 <__clz_tab+0x284>
    800035fc:	0000a517          	auipc	a0,0xa
    80003600:	7ac52503          	lw	a0,1964(a0) # 8000dda8 <__clz_tab+0x288>
    80003604:	849ff0ef          	jal	ra,80002e4c <_Z3arcffiiii>
    80003608:	00009517          	auipc	a0,0x9
    8000360c:	76850513          	addi	a0,a0,1896 # 8000cd70 <errpat+0x798>
    80003610:	020060ef          	jal	ra,80009630 <printf_>
    80003614:	00600713          	li	a4,6
    80003618:	00000693          	li	a3,0
    8000361c:	00600613          	li	a2,6
    80003620:	01a00593          	li	a1,26
    80003624:	00800513          	li	a0,8
    80003628:	f20ff0ef          	jal	ra,80002d48 <_Z4lineiiiii>
    8000362c:	00009517          	auipc	a0,0x9
    80003630:	75450513          	addi	a0,a0,1876 # 8000cd80 <errpat+0x7a8>
    80003634:	7fd050ef          	jal	ra,80009630 <printf_>
    80003638:	00600713          	li	a4,6
    8000363c:	01e00693          	li	a3,30
    80003640:	03e00613          	li	a2,62
    80003644:	03500593          	li	a1,53
    80003648:	01400513          	li	a0,20
    8000364c:	efcff0ef          	jal	ra,80002d48 <_Z4lineiiiii>
    80003650:	00009517          	auipc	a0,0x9
    80003654:	74050513          	addi	a0,a0,1856 # 8000cd90 <errpat+0x7b8>
    80003658:	7d9050ef          	jal	ra,80009630 <printf_>
    8000365c:	fffff617          	auipc	a2,0xfffff
    80003660:	2bc60613          	addi	a2,a2,700 # 80002918 <_ZZ5pdrawvENUliiE1_4_FUNEii>
    80003664:	01e00593          	li	a1,30
    80003668:	01e00513          	li	a0,30
    8000366c:	91dff0ef          	jal	ra,80002f88 <_Z4filliiPFiiiE>
    80003670:	00009517          	auipc	a0,0x9
    80003674:	73050513          	addi	a0,a0,1840 # 8000cda0 <errpat+0x7c8>
    80003678:	7b9050ef          	jal	ra,80009630 <printf_>
    8000367c:	00600793          	li	a5,6
    80003680:	00600713          	li	a4,6
    80003684:	03300693          	li	a3,51
    80003688:	02b00613          	li	a2,43
    8000368c:	0000a597          	auipc	a1,0xa
    80003690:	7205a583          	lw	a1,1824(a1) # 8000ddac <__clz_tab+0x28c>
    80003694:	0000a517          	auipc	a0,0xa
    80003698:	71c52503          	lw	a0,1820(a0) # 8000ddb0 <__clz_tab+0x290>
    8000369c:	fb0ff0ef          	jal	ra,80002e4c <_Z3arcffiiii>
    800036a0:	00009517          	auipc	a0,0x9
    800036a4:	71050513          	addi	a0,a0,1808 # 8000cdb0 <errpat+0x7d8>
    800036a8:	789050ef          	jal	ra,80009630 <printf_>
    800036ac:	00600713          	li	a4,6
    800036b0:	03700693          	li	a3,55
    800036b4:	02000613          	li	a2,32
    800036b8:	03900593          	li	a1,57
    800036bc:	02a00513          	li	a0,42
    800036c0:	e88ff0ef          	jal	ra,80002d48 <_Z4lineiiiii>
    800036c4:	00009517          	auipc	a0,0x9
    800036c8:	6fc50513          	addi	a0,a0,1788 # 8000cdc0 <errpat+0x7e8>
    800036cc:	765050ef          	jal	ra,80009630 <printf_>
    800036d0:	00600713          	li	a4,6
    800036d4:	03700693          	li	a3,55
    800036d8:	02000613          	li	a2,32
    800036dc:	03300593          	li	a1,51
    800036e0:	02100513          	li	a0,33
    800036e4:	e64ff0ef          	jal	ra,80002d48 <_Z4lineiiiii>
    800036e8:	00009517          	auipc	a0,0x9
    800036ec:	6e850513          	addi	a0,a0,1768 # 8000cdd0 <errpat+0x7f8>
    800036f0:	741050ef          	jal	ra,80009630 <printf_>
    800036f4:	00600713          	li	a4,6
    800036f8:	02c00693          	li	a3,44
    800036fc:	02500613          	li	a2,37
    80003700:	03300593          	li	a1,51
    80003704:	02100513          	li	a0,33
    80003708:	e40ff0ef          	jal	ra,80002d48 <_Z4lineiiiii>
    8000370c:	00009517          	auipc	a0,0x9
    80003710:	6d450513          	addi	a0,a0,1748 # 8000cde0 <errpat+0x808>
    80003714:	71d050ef          	jal	ra,80009630 <printf_>
    80003718:	00600713          	li	a4,6
    8000371c:	02700693          	li	a3,39
    80003720:	03000613          	li	a2,48
    80003724:	03300593          	li	a1,51
    80003728:	03100513          	li	a0,49
    8000372c:	e1cff0ef          	jal	ra,80002d48 <_Z4lineiiiii>
    80003730:	00009517          	auipc	a0,0x9
    80003734:	6c050513          	addi	a0,a0,1728 # 8000cdf0 <errpat+0x818>
    80003738:	6f9050ef          	jal	ra,80009630 <printf_>
    8000373c:	00600793          	li	a5,6
    80003740:	01400713          	li	a4,20
    80003744:	03d00693          	li	a3,61
    80003748:	05000613          	li	a2,80
    8000374c:	0000a597          	auipc	a1,0xa
    80003750:	6685a583          	lw	a1,1640(a1) # 8000ddb4 <__clz_tab+0x294>
    80003754:	0000a517          	auipc	a0,0xa
    80003758:	66452503          	lw	a0,1636(a0) # 8000ddb8 <__clz_tab+0x298>
    8000375c:	ef0ff0ef          	jal	ra,80002e4c <_Z3arcffiiii>
    80003760:	00009517          	auipc	a0,0x9
    80003764:	6a050513          	addi	a0,a0,1696 # 8000ce00 <errpat+0x828>
    80003768:	6c9050ef          	jal	ra,80009630 <printf_>
    8000376c:	fffff617          	auipc	a2,0xfffff
    80003770:	0e460613          	addi	a2,a2,228 # 80002850 <_ZZ5pdrawvENUliiE2_4_FUNEii>
    80003774:	03200593          	li	a1,50
    80003778:	02800513          	li	a0,40
    8000377c:	80dff0ef          	jal	ra,80002f88 <_Z4filliiPFiiiE>
    80003780:	00009517          	auipc	a0,0x9
    80003784:	69050513          	addi	a0,a0,1680 # 8000ce10 <errpat+0x838>
    80003788:	6a9050ef          	jal	ra,80009630 <printf_>
    8000378c:	fffff617          	auipc	a2,0xfffff
    80003790:	0cc60613          	addi	a2,a2,204 # 80002858 <_ZZ5pdrawvENUliiE3_4_FUNEii>
    80003794:	03c00593          	li	a1,60
    80003798:	03200513          	li	a0,50
    8000379c:	fecff0ef          	jal	ra,80002f88 <_Z4filliiPFiiiE>
    800037a0:	00009517          	auipc	a0,0x9
    800037a4:	68050513          	addi	a0,a0,1664 # 8000ce20 <errpat+0x848>
    800037a8:	689050ef          	jal	ra,80009630 <printf_>
    800037ac:	fffff617          	auipc	a2,0xfffff
    800037b0:	0b460613          	addi	a2,a2,180 # 80002860 <_ZZ5pdrawvENUliiE4_4_FUNEii>
    800037b4:	04700593          	li	a1,71
    800037b8:	04200513          	li	a0,66
    800037bc:	fccff0ef          	jal	ra,80002f88 <_Z4filliiPFiiiE>
    800037c0:	00009517          	auipc	a0,0x9
    800037c4:	67050513          	addi	a0,a0,1648 # 8000ce30 <errpat+0x858>
    800037c8:	669050ef          	jal	ra,80009630 <printf_>
    800037cc:	035040ef          	jal	ra,80008000 <uptime>
    800037d0:	4085063b          	subw	a2,a0,s0
    800037d4:	00600693          	li	a3,6
    800037d8:	00500513          	li	a0,5
    800037dc:	05f00593          	li	a1,95
    800037e0:	9b5ff0ef          	jal	ra,80003194 <_Z3numiiii>
    800037e4:	00013403          	ld	s0,0(sp)
    800037e8:	00813083          	ld	ra,8(sp)
    800037ec:	00009517          	auipc	a0,0x9
    800037f0:	65450513          	addi	a0,a0,1620 # 8000ce40 <errpat+0x868>
    800037f4:	01010113          	addi	sp,sp,16
    800037f8:	6390506f          	j	80009630 <printf_>

00000000800037fc <_Z13base64_encodePKciPc>:
    800037fc:	00050e93          	mv	t4,a0
    80003800:	00060793          	mv	a5,a2
    80003804:	00050713          	mv	a4,a0
    80003808:	00000693          	li	a3,0
    8000380c:	00009e17          	auipc	t3,0x9
    80003810:	64ce0e13          	addi	t3,t3,1612 # 8000ce58 <errpat+0x880>
    80003814:	41d7083b          	subw	a6,a4,t4
    80003818:	0006851b          	sext.w	a0,a3
    8000381c:	00468f13          	addi	t5,a3,4
    80003820:	06b85c63          	bge	a6,a1,80003898 <_Z13base64_encodePKciPc+0x9c>
    80003824:	00074883          	lbu	a7,0(a4)
    80003828:	00174803          	lbu	a6,1(a4)
    8000382c:	00274683          	lbu	a3,2(a4)
    80003830:	4028d31b          	sraiw	t1,a7,0x2
    80003834:	01c30333          	add	t1,t1,t3
    80003838:	0048989b          	slliw	a7,a7,0x4
    8000383c:	00034503          	lbu	a0,0(t1)
    80003840:	0308f893          	andi	a7,a7,48
    80003844:	00485313          	srli	t1,a6,0x4
    80003848:	011368b3          	or	a7,t1,a7
    8000384c:	01c888b3          	add	a7,a7,t3
    80003850:	0028181b          	slliw	a6,a6,0x2
    80003854:	00a78023          	sb	a0,0(a5)
    80003858:	03c87813          	andi	a6,a6,60
    8000385c:	0008c503          	lbu	a0,0(a7)
    80003860:	0066d893          	srli	a7,a3,0x6
    80003864:	0108e833          	or	a6,a7,a6
    80003868:	03f6f693          	andi	a3,a3,63
    8000386c:	01c80833          	add	a6,a6,t3
    80003870:	01c686b3          	add	a3,a3,t3
    80003874:	0006c683          	lbu	a3,0(a3)
    80003878:	00a780a3          	sb	a0,1(a5)
    8000387c:	00084503          	lbu	a0,0(a6)
    80003880:	00d781a3          	sb	a3,3(a5)
    80003884:	00370713          	addi	a4,a4,3
    80003888:	00a78123          	sb	a0,2(a5)
    8000388c:	000f0693          	mv	a3,t5
    80003890:	00478793          	addi	a5,a5,4
    80003894:	f81ff06f          	j	80003814 <_Z13base64_encodePKciPc+0x18>
    80003898:	00300713          	li	a4,3
    8000389c:	02e5e5bb          	remw	a1,a1,a4
    800038a0:	00100713          	li	a4,1
    800038a4:	00e58a63          	beq	a1,a4,800038b8 <_Z13base64_encodePKciPc+0xbc>
    800038a8:	00200713          	li	a4,2
    800038ac:	00e58c63          	beq	a1,a4,800038c4 <_Z13base64_encodePKciPc+0xc8>
    800038b0:	00078023          	sb	zero,0(a5)
    800038b4:	00008067          	ret
    800038b8:	00d60733          	add	a4,a2,a3
    800038bc:	03d00593          	li	a1,61
    800038c0:	feb70f23          	sb	a1,-2(a4)
    800038c4:	00d60633          	add	a2,a2,a3
    800038c8:	03d00713          	li	a4,61
    800038cc:	fee60fa3          	sb	a4,-1(a2)
    800038d0:	fe1ff06f          	j	800038b0 <_Z13base64_encodePKciPc+0xb4>

00000000800038d4 <_Z5printv>:
    800038d4:	fa010113          	addi	sp,sp,-96
    800038d8:	04813823          	sd	s0,80(sp)
    800038dc:	00001437          	lui	s0,0x1
    800038e0:	c8040513          	addi	a0,s0,-896 # c80 <_start-0x7ffff380>
    800038e4:	04113c23          	sd	ra,88(sp)
    800038e8:	04913423          	sd	s1,72(sp)
    800038ec:	05213023          	sd	s2,64(sp)
    800038f0:	03413823          	sd	s4,48(sp)
    800038f4:	03513423          	sd	s5,40(sp)
    800038f8:	03613023          	sd	s6,32(sp)
    800038fc:	01713c23          	sd	s7,24(sp)
    80003900:	01813823          	sd	s8,16(sp)
    80003904:	03313c23          	sd	s3,56(sp)
    80003908:	01913423          	sd	s9,8(sp)
    8000390c:	01a13023          	sd	s10,0(sp)
    80003910:	ecdfe0ef          	jal	ra,800027dc <alloc_buffer>
    80003914:	00050493          	mv	s1,a0
    80003918:	2c040513          	addi	a0,s0,704
    8000391c:	ec1fe0ef          	jal	ra,800027dc <alloc_buffer>
    80003920:	00018797          	auipc	a5,0x18
    80003924:	e807b023          	sd	zero,-384(a5) # 8001b7a0 <_ZZ5printvE3bfh>
    80003928:	00017c17          	auipc	s8,0x17
    8000392c:	718c0c13          	addi	s8,s8,1816 # 8001b040 <_ZL6canvas>
    80003930:	07600793          	li	a5,118
    80003934:	76fc2423          	sw	a5,1896(s8)
    80003938:	01900793          	li	a5,25
    8000393c:	02279793          	slli	a5,a5,0x22
    80003940:	02878793          	addi	a5,a5,40
    80003944:	76fc3823          	sd	a5,1904(s8)
    80003948:	400017b7          	lui	a5,0x40001
    8000394c:	01479793          	slli	a5,a5,0x14
    80003950:	06478793          	addi	a5,a5,100 # 40001064 <_start-0x3fffef9c>
    80003954:	76fc3c23          	sd	a5,1912(s8)
    80003958:	00200793          	li	a5,2
    8000395c:	78fc3023          	sd	a5,1920(s8)
    80003960:	0000a797          	auipc	a5,0xa
    80003964:	3187b783          	ld	a5,792(a5) # 8000dc78 <__clz_tab+0x158>
    80003968:	78fc3423          	sd	a5,1928(s8)
    8000396c:	01000793          	li	a5,16
    80003970:	02079793          	slli	a5,a5,0x20
    80003974:	01078793          	addi	a5,a5,16
    80003978:	00050a13          	mv	s4,a0
    8000397c:	00009517          	auipc	a0,0x9
    80003980:	52450513          	addi	a0,a0,1316 # 8000cea0 <errpat+0x8c8>
    80003984:	78fc3823          	sd	a5,1936(s8)
    80003988:	4a9050ef          	jal	ra,80009630 <printf_>
    8000398c:	03648793          	addi	a5,s1,54
    80003990:	00000b13          	li	s6,0
    80003994:	00000913          	li	s2,0
    80003998:	00000b93          	li	s7,0
    8000399c:	00018717          	auipc	a4,0x18
    800039a0:	dc470713          	addi	a4,a4,-572 # 8001b760 <_ZL6colors>
    800039a4:	07648613          	addi	a2,s1,118
    800039a8:	00078a93          	mv	s5,a5
    800039ac:	00072683          	lw	a3,0(a4)
    800039b0:	00478793          	addi	a5,a5,4
    800039b4:	fe078fa3          	sb	zero,-1(a5)
    800039b8:	4106d59b          	sraiw	a1,a3,0x10
    800039bc:	feb78e23          	sb	a1,-4(a5)
    800039c0:	4086d59b          	sraiw	a1,a3,0x8
    800039c4:	feb78ea3          	sb	a1,-3(a5)
    800039c8:	fed78f23          	sb	a3,-2(a5)
    800039cc:	00470713          	addi	a4,a4,4
    800039d0:	fcf61ee3          	bne	a2,a5,800039ac <_Z5printv+0xd8>
    800039d4:	00000993          	li	s3,0
    800039d8:	07600793          	li	a5,118
    800039dc:	06400c93          	li	s9,100
    800039e0:	fff00d13          	li	s10,-1
    800039e4:	00078413          	mv	s0,a5
    800039e8:	0009881b          	sext.w	a6,s3
    800039ec:	00000693          	li	a3,0
    800039f0:	00000613          	li	a2,0
    800039f4:	00000793          	li	a5,0
    800039f8:	00100893          	li	a7,1
    800039fc:	01100313          	li	t1,17
    80003a00:	06500593          	li	a1,101
    80003a04:	fff00713          	li	a4,-1
    80003a08:	01968c63          	beq	a3,s9,80003a20 <_Z5printv+0x14c>
    80003a0c:	00369713          	slli	a4,a3,0x3
    80003a10:	00ec0733          	add	a4,s8,a4
    80003a14:	00073703          	ld	a4,0(a4)
    80003a18:	01370733          	add	a4,a4,s3
    80003a1c:	00074703          	lbu	a4,0(a4)
    80003a20:	06060663          	beqz	a2,80003a8c <_Z5printv+0x1b8>
    80003a24:	00197513          	andi	a0,s2,1
    80003a28:	00050463          	beqz	a0,80003a30 <_Z5printv+0x15c>
    80003a2c:	01770663          	beq	a4,s7,80003a38 <_Z5printv+0x164>
    80003a30:	02051e63          	bnez	a0,80003a6c <_Z5printv+0x198>
    80003a34:	03671c63          	bne	a4,s6,80003a6c <_Z5printv+0x198>
    80003a38:	0019091b          	addiw	s2,s2,1
    80003a3c:	06078463          	beqz	a5,80003aa4 <_Z5printv+0x1d0>
    80003a40:	19a71e63          	bne	a4,s10,80003bdc <_Z5printv+0x308>
    80003a44:	026b063b          	mulw	a2,s6,t1
    80003a48:	00848733          	add	a4,s1,s0
    80003a4c:	01170023          	sb	a7,0(a4)
    80003a50:	0014071b          	addiw	a4,s0,1
    80003a54:	00e48733          	add	a4,s1,a4
    80003a58:	0024041b          	addiw	s0,s0,2
    80003a5c:	00c70023          	sb	a2,0(a4)
    80003a60:	00078613          	mv	a2,a5
    80003a64:	00000793          	li	a5,0
    80003a68:	03c0006f          	j	80003aa4 <_Z5printv+0x1d0>
    80003a6c:	00848533          	add	a0,s1,s0
    80003a70:	0014061b          	addiw	a2,s0,1
    80003a74:	01250023          	sb	s2,0(a0)
    80003a78:	004b151b          	slliw	a0,s6,0x4
    80003a7c:	00c48633          	add	a2,s1,a2
    80003a80:	0175053b          	addw	a0,a0,s7
    80003a84:	0024041b          	addiw	s0,s0,2
    80003a88:	00a60023          	sb	a0,0(a2)
    80003a8c:	14079463          	bnez	a5,80003bd4 <_Z5printv+0x300>
    80003a90:	00000613          	li	a2,0
    80003a94:	01a70863          	beq	a4,s10,80003aa4 <_Z5printv+0x1d0>
    80003a98:	00070b13          	mv	s6,a4
    80003a9c:	00100913          	li	s2,1
    80003aa0:	00100793          	li	a5,1
    80003aa4:	00168693          	addi	a3,a3,1
    80003aa8:	f4b69ee3          	bne	a3,a1,80003a04 <_Z5printv+0x130>
    80003aac:	01400593          	li	a1,20
    80003ab0:	02b867bb          	remw	a5,a6,a1
    80003ab4:	00078c63          	beqz	a5,80003acc <_Z5printv+0x1f8>
    80003ab8:	02b845bb          	divw	a1,a6,a1
    80003abc:	00009517          	auipc	a0,0x9
    80003ac0:	3f450513          	addi	a0,a0,1012 # 8000ceb0 <errpat+0x8d8>
    80003ac4:	0015859b          	addiw	a1,a1,1
    80003ac8:	369050ef          	jal	ra,80009630 <printf_>
    80003acc:	008487b3          	add	a5,s1,s0
    80003ad0:	0014071b          	addiw	a4,s0,1
    80003ad4:	00078023          	sb	zero,0(a5)
    80003ad8:	00e48733          	add	a4,s1,a4
    80003adc:	00070023          	sb	zero,0(a4)
    80003ae0:	00198993          	addi	s3,s3,1
    80003ae4:	0024079b          	addiw	a5,s0,2
    80003ae8:	ef999ee3          	bne	s3,s9,800039e4 <_Z5printv+0x110>
    80003aec:	0044099b          	addiw	s3,s0,4
    80003af0:	00f487b3          	add	a5,s1,a5
    80003af4:	0034041b          	addiw	s0,s0,3
    80003af8:	00078023          	sb	zero,0(a5)
    80003afc:	00100713          	li	a4,1
    80003b00:	008487b3          	add	a5,s1,s0
    80003b04:	00e78023          	sb	a4,0(a5)
    80003b08:	00098593          	mv	a1,s3
    80003b0c:	00009517          	auipc	a0,0x9
    80003b10:	3b450513          	addi	a0,a0,948 # 8000cec0 <errpat+0x8e8>
    80003b14:	31d050ef          	jal	ra,80009630 <printf_>
    80003b18:	768c2783          	lw	a5,1896(s8)
    80003b1c:	773c2023          	sw	s3,1888(s8)
    80003b20:	00018697          	auipc	a3,0x18
    80003b24:	c8068693          	addi	a3,a3,-896 # 8001b7a0 <_ZZ5printvE3bfh>
    80003b28:	40f9893b          	subw	s2,s3,a5
    80003b2c:	000057b7          	lui	a5,0x5
    80003b30:	d427879b          	addiw	a5,a5,-702
    80003b34:	792c2223          	sw	s2,1924(s8)
    80003b38:	00f49023          	sh	a5,0(s1)
    80003b3c:	00248713          	addi	a4,s1,2
    80003b40:	00e48793          	addi	a5,s1,14
    80003b44:	0006c603          	lbu	a2,0(a3)
    80003b48:	00170713          	addi	a4,a4,1
    80003b4c:	00168693          	addi	a3,a3,1
    80003b50:	fec70fa3          	sb	a2,-1(a4)
    80003b54:	fee798e3          	bne	a5,a4,80003b44 <_Z5printv+0x270>
    80003b58:	00018717          	auipc	a4,0x18
    80003b5c:	c5870713          	addi	a4,a4,-936 # 8001b7b0 <_ZZ5printvE3bih>
    80003b60:	00074683          	lbu	a3,0(a4)
    80003b64:	00178793          	addi	a5,a5,1 # 5001 <_start-0x7fffafff>
    80003b68:	00170713          	addi	a4,a4,1
    80003b6c:	fed78fa3          	sb	a3,-1(a5)
    80003b70:	fefa98e3          	bne	s5,a5,80003b60 <_Z5printv+0x28c>
    80003b74:	00009517          	auipc	a0,0x9
    80003b78:	36450513          	addi	a0,a0,868 # 8000ced8 <errpat+0x900>
    80003b7c:	2b5050ef          	jal	ra,80009630 <printf_>
    80003b80:	00098593          	mv	a1,s3
    80003b84:	000a0613          	mv	a2,s4
    80003b88:	00048513          	mv	a0,s1
    80003b8c:	c71ff0ef          	jal	ra,800037fc <_Z13base64_encodePKciPc>
    80003b90:	05013403          	ld	s0,80(sp)
    80003b94:	05813083          	ld	ra,88(sp)
    80003b98:	04813483          	ld	s1,72(sp)
    80003b9c:	04013903          	ld	s2,64(sp)
    80003ba0:	03813983          	ld	s3,56(sp)
    80003ba4:	02813a83          	ld	s5,40(sp)
    80003ba8:	02013b03          	ld	s6,32(sp)
    80003bac:	01813b83          	ld	s7,24(sp)
    80003bb0:	01013c03          	ld	s8,16(sp)
    80003bb4:	00813c83          	ld	s9,8(sp)
    80003bb8:	00013d03          	ld	s10,0(sp)
    80003bbc:	000a0593          	mv	a1,s4
    80003bc0:	03013a03          	ld	s4,48(sp)
    80003bc4:	00009517          	auipc	a0,0x9
    80003bc8:	32450513          	addi	a0,a0,804 # 8000cee8 <errpat+0x910>
    80003bcc:	06010113          	addi	sp,sp,96
    80003bd0:	2610506f          	j	80009630 <printf_>
    80003bd4:	00000793          	li	a5,0
    80003bd8:	e69ff06f          	j	80003a40 <_Z5printv+0x16c>
    80003bdc:	00070b93          	mv	s7,a4
    80003be0:	00100613          	li	a2,1
    80003be4:	00200913          	li	s2,2
    80003be8:	e7dff06f          	j	80003a64 <_Z5printv+0x190>

0000000080003bec <main_paint>:
    80003bec:	fe010113          	addi	sp,sp,-32
    80003bf0:	00813823          	sd	s0,16(sp)
    80003bf4:	00913423          	sd	s1,8(sp)
    80003bf8:	00113c23          	sd	ra,24(sp)
    80003bfc:	00017417          	auipc	s0,0x17
    80003c00:	44440413          	addi	s0,s0,1092 # 8001b040 <_ZL6canvas>
    80003c04:	00017497          	auipc	s1,0x17
    80003c08:	75c48493          	addi	s1,s1,1884 # 8001b360 <_ZZ4filliiPFiiiEE1q>
    80003c0c:	06400513          	li	a0,100
    80003c10:	bcdfe0ef          	jal	ra,800027dc <alloc_buffer>
    80003c14:	00a43023          	sd	a0,0(s0)
    80003c18:	00840413          	addi	s0,s0,8
    80003c1c:	fe9418e3          	bne	s0,s1,80003c0c <main_paint+0x20>
    80003c20:	00009517          	auipc	a0,0x9
    80003c24:	2f050513          	addi	a0,a0,752 # 8000cf10 <errpat+0x938>
    80003c28:	209050ef          	jal	ra,80009630 <printf_>
    80003c2c:	fccff0ef          	jal	ra,800033f8 <_Z5pdrawv>
    80003c30:	ca5ff0ef          	jal	ra,800038d4 <_Z5printv>
    80003c34:	01813083          	ld	ra,24(sp)
    80003c38:	01013403          	ld	s0,16(sp)
    80003c3c:	00813483          	ld	s1,8(sp)
    80003c40:	00000513          	li	a0,0
    80003c44:	02010113          	addi	sp,sp,32
    80003c48:	00008067          	ret

0000000080003c4c <single_instr_test>:
    80003c4c:	0000a297          	auipc	t0,0xa
    80003c50:	17428293          	addi	t0,t0,372 # 8000ddc0 <ans_data>
    80003c54:	00008f93          	mv	t6,ra
    80003c58:	186a0537          	lui	a0,0x186a0
    80003c5c:	f42405b7          	lui	a1,0xf4240
    80003c60:	1eb54063          	blt	a0,a1,80003e40 <fail>
    80003c64:	1c05de63          	bgez	a1,80003e40 <fail>
    80003c68:	00b56463          	bltu	a0,a1,80003c70 <pass_1>
    80003c6c:	1d40006f          	j	80003e40 <fail>

0000000080003c70 <pass_1>:
    80003c70:	00b5f463          	bgeu	a1,a1,80003c78 <pass_2>
    80003c74:	1cc0006f          	j	80003e40 <fail>

0000000080003c78 <pass_2>:
    80003c78:	00028503          	lb	a0,0(t0)
    80003c7c:	1b4000ef          	jal	ra,80003e30 <check>
    80003c80:	ff828293          	addi	t0,t0,-8
    80003c84:	00029503          	lh	a0,0(t0)
    80003c88:	1a8000ef          	jal	ra,80003e30 <check>
    80003c8c:	ff828293          	addi	t0,t0,-8
    80003c90:	0002a503          	lw	a0,0(t0)
    80003c94:	19c000ef          	jal	ra,80003e30 <check>
    80003c98:	ff828293          	addi	t0,t0,-8
    80003c9c:	0002a223          	sw	zero,4(t0)
    80003ca0:	0002e503          	lwu	a0,0(t0)
    80003ca4:	18c000ef          	jal	ra,80003e30 <check>
    80003ca8:	ff828293          	addi	t0,t0,-8
    80003cac:	00029123          	sh	zero,2(t0)
    80003cb0:	0002d503          	lhu	a0,0(t0)
    80003cb4:	17c000ef          	jal	ra,80003e30 <check>
    80003cb8:	ff828293          	addi	t0,t0,-8
    80003cbc:	000280a3          	sb	zero,1(t0)
    80003cc0:	0002c503          	lbu	a0,0(t0)
    80003cc4:	16c000ef          	jal	ra,80003e30 <check>
    80003cc8:	f9c00513          	li	a0,-100
    80003ccc:	f9d52513          	slti	a0,a0,-99
    80003cd0:	160000ef          	jal	ra,80003e30 <check>
    80003cd4:	ff828293          	addi	t0,t0,-8
    80003cd8:	f9d53513          	sltiu	a0,a0,-99
    80003cdc:	154000ef          	jal	ra,80003e30 <check>
    80003ce0:	fff00593          	li	a1,-1
    80003ce4:	00b52533          	slt	a0,a0,a1
    80003ce8:	14051c63          	bnez	a0,80003e40 <fail>
    80003cec:	00053533          	sltu	a0,a0,zero
    80003cf0:	14051863          	bnez	a0,80003e40 <fail>
    80003cf4:	ffffd5b7          	lui	a1,0xffffd
    80003cf8:	fc75859b          	addiw	a1,a1,-57
    80003cfc:	06000613          	li	a2,96
    80003d00:	02059513          	slli	a0,a1,0x20
    80003d04:	12c000ef          	jal	ra,80003e30 <check>
    80003d08:	ff828293          	addi	t0,t0,-8
    80003d0c:	00c595b3          	sll	a1,a1,a2
    80003d10:	00058513          	mv	a0,a1
    80003d14:	11c000ef          	jal	ra,80003e30 <check>
    80003d18:	4205d513          	srai	a0,a1,0x20
    80003d1c:	114000ef          	jal	ra,80003e30 <check>
    80003d20:	ff828293          	addi	t0,t0,-8
    80003d24:	40c5d533          	sra	a0,a1,a2
    80003d28:	108000ef          	jal	ra,80003e30 <check>
    80003d2c:	ff828293          	addi	t0,t0,-8
    80003d30:	0002a223          	sw	zero,4(t0)
    80003d34:	0205d513          	srli	a0,a1,0x20
    80003d38:	0f8000ef          	jal	ra,80003e30 <check>
    80003d3c:	ff828293          	addi	t0,t0,-8
    80003d40:	00c5d533          	srl	a0,a1,a2
    80003d44:	0ec000ef          	jal	ra,80003e30 <check>
    80003d48:	000105b7          	lui	a1,0x10
    80003d4c:	fff5859b          	addiw	a1,a1,-1
    80003d50:	03000613          	li	a2,48
    80003d54:	0105951b          	slliw	a0,a1,0x10
    80003d58:	0d8000ef          	jal	ra,80003e30 <check>
    80003d5c:	ff828293          	addi	t0,t0,-8
    80003d60:	00c595bb          	sllw	a1,a1,a2
    80003d64:	00058513          	mv	a0,a1
    80003d68:	0c8000ef          	jal	ra,80003e30 <check>
    80003d6c:	4105d51b          	sraiw	a0,a1,0x10
    80003d70:	0c0000ef          	jal	ra,80003e30 <check>
    80003d74:	ff828293          	addi	t0,t0,-8
    80003d78:	40c5d53b          	sraw	a0,a1,a2
    80003d7c:	0b4000ef          	jal	ra,80003e30 <check>
    80003d80:	ff828293          	addi	t0,t0,-8
    80003d84:	00029123          	sh	zero,2(t0)
    80003d88:	0002a223          	sw	zero,4(t0)
    80003d8c:	0105d51b          	srliw	a0,a1,0x10
    80003d90:	0a0000ef          	jal	ra,80003e30 <check>
    80003d94:	ff828293          	addi	t0,t0,-8
    80003d98:	00c5d53b          	srlw	a0,a1,a2
    80003d9c:	094000ef          	jal	ra,80003e30 <check>
    80003da0:	f00015b7          	lui	a1,0xf0001
    80003da4:	10000537          	lui	a0,0x10000
    80003da8:	00003637          	lui	a2,0x3
    80003dac:	0396061b          	addiw	a2,a2,57
    80003db0:	02a585b3          	mul	a1,a1,a0
    80003db4:	40c585b3          	sub	a1,a1,a2
    80003db8:	02c5853b          	mulw	a0,a1,a2
    80003dbc:	074000ef          	jal	ra,80003e30 <check>
    80003dc0:	f00335b7          	lui	a1,0xf0033
    80003dc4:	00003637          	lui	a2,0x3
    80003dc8:	0396061b          	addiw	a2,a2,57
    80003dcc:	02c5c533          	div	a0,a1,a2
    80003dd0:	060000ef          	jal	ra,80003e30 <check>
    80003dd4:	02c5e533          	rem	a0,a1,a2
    80003dd8:	058000ef          	jal	ra,80003e30 <check>
    80003ddc:	02c5d533          	divu	a0,a1,a2
    80003de0:	050000ef          	jal	ra,80003e30 <check>
    80003de4:	02c5f533          	remu	a0,a1,a2
    80003de8:	048000ef          	jal	ra,80003e30 <check>
    80003dec:	0015d593          	srli	a1,a1,0x1
    80003df0:	02c5c533          	div	a0,a1,a2
    80003df4:	03c000ef          	jal	ra,80003e30 <check>
    80003df8:	02c5e533          	rem	a0,a1,a2
    80003dfc:	034000ef          	jal	ra,80003e30 <check>
    80003e00:	02c5c53b          	divw	a0,a1,a2
    80003e04:	02c000ef          	jal	ra,80003e30 <check>
    80003e08:	02c5e53b          	remw	a0,a1,a2
    80003e0c:	024000ef          	jal	ra,80003e30 <check>
    80003e10:	00100613          	li	a2,1
    80003e14:	02c5d53b          	divuw	a0,a1,a2
    80003e18:	018000ef          	jal	ra,80003e30 <check>
    80003e1c:	02c5f53b          	remuw	a0,a1,a2
    80003e20:	02051063          	bnez	a0,80003e40 <fail>
    80003e24:	000f8093          	mv	ra,t6
    80003e28:	0e900513          	li	a0,233
    80003e2c:	00008067          	ret

0000000080003e30 <check>:
    80003e30:	0002b303          	ld	t1,0(t0)
    80003e34:	00828293          	addi	t0,t0,8
    80003e38:	00651463          	bne	a0,t1,80003e40 <fail>
    80003e3c:	00008067          	ret

0000000080003e40 <fail>:
    80003e40:	fff00513          	li	a0,-1
    80003e44:	0005006b          	0x5006b
    80003e48:	ff9ff06f          	j	80003e40 <fail>

0000000080003e4c <mysecond>:
    80003e4c:	ff010113          	addi	sp,sp,-16
    80003e50:	00113423          	sd	ra,8(sp)
    80003e54:	17c040ef          	jal	ra,80007fd0 <uptime_us>
    80003e58:	0005051b          	sext.w	a0,a0
    80003e5c:	309050ef          	jal	ra,80009964 <__floatunsidf>
    80003e60:	0000a597          	auipc	a1,0xa
    80003e64:	e205b583          	ld	a1,-480(a1) # 8000dc80 <__clz_tab+0x160>
    80003e68:	3ec060ef          	jal	ra,8000a254 <__divdf3>
    80003e6c:	00813083          	ld	ra,8(sp)
    80003e70:	01010113          	addi	sp,sp,16
    80003e74:	00008067          	ret

0000000080003e78 <checktick>:
    80003e78:	f2010113          	addi	sp,sp,-224
    80003e7c:	0c913423          	sd	s1,200(sp)
    80003e80:	00010493          	mv	s1,sp
    80003e84:	0c813823          	sd	s0,208(sp)
    80003e88:	0b413823          	sd	s4,176(sp)
    80003e8c:	0b513423          	sd	s5,168(sp)
    80003e90:	0c113c23          	sd	ra,216(sp)
    80003e94:	0d213023          	sd	s2,192(sp)
    80003e98:	0b313c23          	sd	s3,184(sp)
    80003e9c:	00048413          	mv	s0,s1
    80003ea0:	00009a97          	auipc	s5,0x9
    80003ea4:	0a0a8a93          	addi	s5,s5,160 # 8000cf40 <_ZZ3numiiiiE1t+0x10>
    80003ea8:	0000aa17          	auipc	s4,0xa
    80003eac:	de0a3a03          	ld	s4,-544(s4) # 8000dc88 <__clz_tab+0x168>
    80003eb0:	f9dff0ef          	jal	ra,80003e4c <mysecond>
    80003eb4:	00050593          	mv	a1,a0
    80003eb8:	000a8513          	mv	a0,s5
    80003ebc:	774050ef          	jal	ra,80009630 <printf_>
    80003ec0:	f8dff0ef          	jal	ra,80003e4c <mysecond>
    80003ec4:	00050993          	mv	s3,a0
    80003ec8:	f85ff0ef          	jal	ra,80003e4c <mysecond>
    80003ecc:	00098593          	mv	a1,s3
    80003ed0:	750070ef          	jal	ra,8000b620 <__subdf3>
    80003ed4:	000a0593          	mv	a1,s4
    80003ed8:	00050913          	mv	s2,a0
    80003edc:	7f5060ef          	jal	ra,8000aed0 <__ledf2>
    80003ee0:	fe0544e3          	bltz	a0,80003ec8 <checktick+0x50>
    80003ee4:	01243023          	sd	s2,0(s0)
    80003ee8:	0a010793          	addi	a5,sp,160
    80003eec:	00840413          	addi	s0,s0,8
    80003ef0:	fcf410e3          	bne	s0,a5,80003eb0 <checktick+0x38>
    80003ef4:	000f4437          	lui	s0,0xf4
    80003ef8:	24040413          	addi	s0,s0,576 # f4240 <_start-0x7ff0bdc0>
    80003efc:	0000a917          	auipc	s2,0xa
    80003f00:	d8493903          	ld	s2,-636(s2) # 8000dc80 <__clz_tab+0x160>
    80003f04:	0004b503          	ld	a0,0(s1)
    80003f08:	00090593          	mv	a1,s2
    80003f0c:	13c070ef          	jal	ra,8000b048 <__muldf3>
    80003f10:	271060ef          	jal	ra,8000a980 <__fixdfsi>
    80003f14:	02051793          	slli	a5,a0,0x20
    80003f18:	0007d463          	bgez	a5,80003f20 <checktick+0xa8>
    80003f1c:	00000513          	li	a0,0
    80003f20:	0005079b          	sext.w	a5,a0
    80003f24:	00f45463          	bge	s0,a5,80003f2c <checktick+0xb4>
    80003f28:	00040513          	mv	a0,s0
    80003f2c:	00848493          	addi	s1,s1,8
    80003f30:	0a010793          	addi	a5,sp,160
    80003f34:	0005041b          	sext.w	s0,a0
    80003f38:	fcf496e3          	bne	s1,a5,80003f04 <checktick+0x8c>
    80003f3c:	0d813083          	ld	ra,216(sp)
    80003f40:	00040513          	mv	a0,s0
    80003f44:	0d013403          	ld	s0,208(sp)
    80003f48:	0c813483          	ld	s1,200(sp)
    80003f4c:	0c013903          	ld	s2,192(sp)
    80003f50:	0b813983          	ld	s3,184(sp)
    80003f54:	0b013a03          	ld	s4,176(sp)
    80003f58:	0a813a83          	ld	s5,168(sp)
    80003f5c:	0e010113          	addi	sp,sp,224
    80003f60:	00008067          	ret

0000000080003f64 <checkSTREAMresults>:
    80003f64:	f7010113          	addi	sp,sp,-144
    80003f68:	07413023          	sd	s4,96(sp)
    80003f6c:	0000aa17          	auipc	s4,0xa
    80003f70:	d2ca3a03          	ld	s4,-724(s4) # 8000dc98 <__clz_tab+0x178>
    80003f74:	08813023          	sd	s0,128(sp)
    80003f78:	07313423          	sd	s3,104(sp)
    80003f7c:	05513c23          	sd	s5,88(sp)
    80003f80:	08113423          	sd	ra,136(sp)
    80003f84:	06913c23          	sd	s1,120(sp)
    80003f88:	07213823          	sd	s2,112(sp)
    80003f8c:	05613823          	sd	s6,80(sp)
    80003f90:	05713423          	sd	s7,72(sp)
    80003f94:	05813023          	sd	s8,64(sp)
    80003f98:	03913c23          	sd	s9,56(sp)
    80003f9c:	03a13823          	sd	s10,48(sp)
    80003fa0:	03b13423          	sd	s11,40(sp)
    80003fa4:	00a00993          	li	s3,10
    80003fa8:	0000a417          	auipc	s0,0xa
    80003fac:	ce843403          	ld	s0,-792(s0) # 8000dc90 <__clz_tab+0x170>
    80003fb0:	000a0a93          	mv	s5,s4
    80003fb4:	000a0593          	mv	a1,s4
    80003fb8:	00040513          	mv	a0,s0
    80003fbc:	08c070ef          	jal	ra,8000b048 <__muldf3>
    80003fc0:	00040593          	mv	a1,s0
    80003fc4:	00050493          	mv	s1,a0
    80003fc8:	1d1050ef          	jal	ra,80009998 <__adddf3>
    80003fcc:	000a8593          	mv	a1,s5
    80003fd0:	00050913          	mv	s2,a0
    80003fd4:	074070ef          	jal	ra,8000b048 <__muldf3>
    80003fd8:	00048593          	mv	a1,s1
    80003fdc:	1bd050ef          	jal	ra,80009998 <__adddf3>
    80003fe0:	fff9899b          	addiw	s3,s3,-1
    80003fe4:	00050413          	mv	s0,a0
    80003fe8:	fc0996e3          	bnez	s3,80003fb4 <checkSTREAMresults+0x50>
    80003fec:	00018697          	auipc	a3,0x18
    80003ff0:	85c68693          	addi	a3,a3,-1956 # 8001b848 <a>
    80003ff4:	00018717          	auipc	a4,0x18
    80003ff8:	84c70713          	addi	a4,a4,-1972 # 8001b840 <b>
    80003ffc:	00018797          	auipc	a5,0x18
    80004000:	83c78793          	addi	a5,a5,-1988 # 8001b838 <c>
    80004004:	0006bc83          	ld	s9,0(a3)
    80004008:	00073d03          	ld	s10,0(a4)
    8000400c:	0007bd83          	ld	s11,0(a5)
    80004010:	00000a13          	li	s4,0
    80004014:	fff00b93          	li	s7,-1
    80004018:	000a0a93          	mv	s5,s4
    8000401c:	000a0b13          	mv	s6,s4
    80004020:	00d13023          	sd	a3,0(sp)
    80004024:	00e13423          	sd	a4,8(sp)
    80004028:	00f13823          	sd	a5,16(sp)
    8000402c:	03fb9b93          	slli	s7,s7,0x3f
    80004030:	00004c37          	lui	s8,0x4
    80004034:	013c87b3          	add	a5,s9,s3
    80004038:	0007b503          	ld	a0,0(a5)
    8000403c:	00040593          	mv	a1,s0
    80004040:	5e0070ef          	jal	ra,8000b620 <__subdf3>
    80004044:	00000593          	li	a1,0
    80004048:	00a13c23          	sd	a0,24(sp)
    8000404c:	50d060ef          	jal	ra,8000ad58 <__gedf2>
    80004050:	01813783          	ld	a5,24(sp)
    80004054:	00055463          	bgez	a0,8000405c <checkSTREAMresults+0xf8>
    80004058:	00fbc7b3          	xor	a5,s7,a5
    8000405c:	00078593          	mv	a1,a5
    80004060:	000b0513          	mv	a0,s6
    80004064:	135050ef          	jal	ra,80009998 <__adddf3>
    80004068:	013d07b3          	add	a5,s10,s3
    8000406c:	00050b13          	mv	s6,a0
    80004070:	0007b503          	ld	a0,0(a5)
    80004074:	00048593          	mv	a1,s1
    80004078:	5a8070ef          	jal	ra,8000b620 <__subdf3>
    8000407c:	00000593          	li	a1,0
    80004080:	00a13c23          	sd	a0,24(sp)
    80004084:	4d5060ef          	jal	ra,8000ad58 <__gedf2>
    80004088:	01813783          	ld	a5,24(sp)
    8000408c:	00055463          	bgez	a0,80004094 <checkSTREAMresults+0x130>
    80004090:	00fbc7b3          	xor	a5,s7,a5
    80004094:	00078593          	mv	a1,a5
    80004098:	000a8513          	mv	a0,s5
    8000409c:	0fd050ef          	jal	ra,80009998 <__adddf3>
    800040a0:	013d87b3          	add	a5,s11,s3
    800040a4:	00050a93          	mv	s5,a0
    800040a8:	0007b503          	ld	a0,0(a5)
    800040ac:	00090593          	mv	a1,s2
    800040b0:	570070ef          	jal	ra,8000b620 <__subdf3>
    800040b4:	00000593          	li	a1,0
    800040b8:	00a13c23          	sd	a0,24(sp)
    800040bc:	49d060ef          	jal	ra,8000ad58 <__gedf2>
    800040c0:	01813783          	ld	a5,24(sp)
    800040c4:	00055463          	bgez	a0,800040cc <checkSTREAMresults+0x168>
    800040c8:	00fbc7b3          	xor	a5,s7,a5
    800040cc:	000a0513          	mv	a0,s4
    800040d0:	00078593          	mv	a1,a5
    800040d4:	0c5050ef          	jal	ra,80009998 <__adddf3>
    800040d8:	00898993          	addi	s3,s3,8
    800040dc:	00050a13          	mv	s4,a0
    800040e0:	f5899ae3          	bne	s3,s8,80004034 <checkSTREAMresults+0xd0>
    800040e4:	0000a597          	auipc	a1,0xa
    800040e8:	bbc5b583          	ld	a1,-1092(a1) # 8000dca0 <__clz_tab+0x180>
    800040ec:	000b0513          	mv	a0,s6
    800040f0:	759060ef          	jal	ra,8000b048 <__muldf3>
    800040f4:	00050b13          	mv	s6,a0
    800040f8:	0000a597          	auipc	a1,0xa
    800040fc:	ba85b583          	ld	a1,-1112(a1) # 8000dca0 <__clz_tab+0x180>
    80004100:	000a8513          	mv	a0,s5
    80004104:	745060ef          	jal	ra,8000b048 <__muldf3>
    80004108:	0000a597          	auipc	a1,0xa
    8000410c:	b985b583          	ld	a1,-1128(a1) # 8000dca0 <__clz_tab+0x180>
    80004110:	00050a93          	mv	s5,a0
    80004114:	000a0513          	mv	a0,s4
    80004118:	731060ef          	jal	ra,8000b048 <__muldf3>
    8000411c:	00040593          	mv	a1,s0
    80004120:	00050a13          	mv	s4,a0
    80004124:	000b0513          	mv	a0,s6
    80004128:	12c060ef          	jal	ra,8000a254 <__divdf3>
    8000412c:	00000593          	li	a1,0
    80004130:	00050b93          	mv	s7,a0
    80004134:	425060ef          	jal	ra,8000ad58 <__gedf2>
    80004138:	00055863          	bgez	a0,80004148 <checkSTREAMresults+0x1e4>
    8000413c:	fff00793          	li	a5,-1
    80004140:	03f79793          	slli	a5,a5,0x3f
    80004144:	0177cbb3          	xor	s7,a5,s7
    80004148:	0000a997          	auipc	s3,0xa
    8000414c:	b609b983          	ld	s3,-1184(s3) # 8000dca8 <__clz_tab+0x188>
    80004150:	00098593          	mv	a1,s3
    80004154:	000b8513          	mv	a0,s7
    80004158:	401060ef          	jal	ra,8000ad58 <__gedf2>
    8000415c:	32a05c63          	blez	a0,80004494 <checkSTREAMresults+0x530>
    80004160:	00098593          	mv	a1,s3
    80004164:	00009517          	auipc	a0,0x9
    80004168:	df450513          	addi	a0,a0,-524 # 8000cf58 <_ZZ3numiiiiE1t+0x28>
    8000416c:	4c4050ef          	jal	ra,80009630 <printf_>
    80004170:	00000593          	li	a1,0
    80004174:	000b0513          	mv	a0,s6
    80004178:	3e1060ef          	jal	ra,8000ad58 <__gedf2>
    8000417c:	000b0793          	mv	a5,s6
    80004180:	00055863          	bgez	a0,80004190 <checkSTREAMresults+0x22c>
    80004184:	fff00793          	li	a5,-1
    80004188:	03f79793          	slli	a5,a5,0x3f
    8000418c:	00fb47b3          	xor	a5,s6,a5
    80004190:	00078513          	mv	a0,a5
    80004194:	00040593          	mv	a1,s0
    80004198:	0bc060ef          	jal	ra,8000a254 <__divdf3>
    8000419c:	00050693          	mv	a3,a0
    800041a0:	000b0613          	mv	a2,s6
    800041a4:	00040593          	mv	a1,s0
    800041a8:	00009517          	auipc	a0,0x9
    800041ac:	df050513          	addi	a0,a0,-528 # 8000cf98 <_ZZ3numiiiiE1t+0x68>
    800041b0:	480050ef          	jal	ra,80009630 <printf_>
    800041b4:	00013783          	ld	a5,0(sp)
    800041b8:	00004bb7          	lui	s7,0x4
    800041bc:	fff00c13          	li	s8,-1
    800041c0:	0007bb03          	ld	s6,0(a5)
    800041c4:	00000d93          	li	s11,0
    800041c8:	0000ac97          	auipc	s9,0xa
    800041cc:	ae8cbc83          	ld	s9,-1304(s9) # 8000dcb0 <__clz_tab+0x190>
    800041d0:	017b0bb3          	add	s7,s6,s7
    800041d4:	03fc1c13          	slli	s8,s8,0x3f
    800041d8:	000b3503          	ld	a0,0(s6)
    800041dc:	00040593          	mv	a1,s0
    800041e0:	074060ef          	jal	ra,8000a254 <__divdf3>
    800041e4:	000c8593          	mv	a1,s9
    800041e8:	438070ef          	jal	ra,8000b620 <__subdf3>
    800041ec:	00000593          	li	a1,0
    800041f0:	00050d13          	mv	s10,a0
    800041f4:	365060ef          	jal	ra,8000ad58 <__gedf2>
    800041f8:	00055463          	bgez	a0,80004200 <checkSTREAMresults+0x29c>
    800041fc:	01ac4d33          	xor	s10,s8,s10
    80004200:	00098593          	mv	a1,s3
    80004204:	000d0513          	mv	a0,s10
    80004208:	351060ef          	jal	ra,8000ad58 <__gedf2>
    8000420c:	00a05463          	blez	a0,80004214 <checkSTREAMresults+0x2b0>
    80004210:	001d8d9b          	addiw	s11,s11,1
    80004214:	008b0b13          	addi	s6,s6,8
    80004218:	fd6b90e3          	bne	s7,s6,800041d8 <checkSTREAMresults+0x274>
    8000421c:	000d8593          	mv	a1,s11
    80004220:	00009517          	auipc	a0,0x9
    80004224:	db850513          	addi	a0,a0,-584 # 8000cfd8 <_ZZ3numiiiiE1t+0xa8>
    80004228:	408050ef          	jal	ra,80009630 <printf_>
    8000422c:	00100b13          	li	s6,1
    80004230:	00048593          	mv	a1,s1
    80004234:	000a8513          	mv	a0,s5
    80004238:	01c060ef          	jal	ra,8000a254 <__divdf3>
    8000423c:	00000593          	li	a1,0
    80004240:	00050413          	mv	s0,a0
    80004244:	315060ef          	jal	ra,8000ad58 <__gedf2>
    80004248:	00055863          	bgez	a0,80004258 <checkSTREAMresults+0x2f4>
    8000424c:	fff00793          	li	a5,-1
    80004250:	03f79793          	slli	a5,a5,0x3f
    80004254:	0087c433          	xor	s0,a5,s0
    80004258:	00098593          	mv	a1,s3
    8000425c:	00040513          	mv	a0,s0
    80004260:	2f9060ef          	jal	ra,8000ad58 <__gedf2>
    80004264:	0ea05263          	blez	a0,80004348 <checkSTREAMresults+0x3e4>
    80004268:	00098593          	mv	a1,s3
    8000426c:	00009517          	auipc	a0,0x9
    80004270:	d9c50513          	addi	a0,a0,-612 # 8000d008 <_ZZ3numiiiiE1t+0xd8>
    80004274:	3bc050ef          	jal	ra,80009630 <printf_>
    80004278:	00000593          	li	a1,0
    8000427c:	000a8513          	mv	a0,s5
    80004280:	2d9060ef          	jal	ra,8000ad58 <__gedf2>
    80004284:	001b0b1b          	addiw	s6,s6,1
    80004288:	000a8793          	mv	a5,s5
    8000428c:	00055863          	bgez	a0,8000429c <checkSTREAMresults+0x338>
    80004290:	fff00793          	li	a5,-1
    80004294:	03f79793          	slli	a5,a5,0x3f
    80004298:	00fac7b3          	xor	a5,s5,a5
    8000429c:	00078513          	mv	a0,a5
    800042a0:	00048593          	mv	a1,s1
    800042a4:	7b1050ef          	jal	ra,8000a254 <__divdf3>
    800042a8:	00050693          	mv	a3,a0
    800042ac:	000a8613          	mv	a2,s5
    800042b0:	00048593          	mv	a1,s1
    800042b4:	00009517          	auipc	a0,0x9
    800042b8:	ce450513          	addi	a0,a0,-796 # 8000cf98 <_ZZ3numiiiiE1t+0x68>
    800042bc:	374050ef          	jal	ra,80009630 <printf_>
    800042c0:	00098593          	mv	a1,s3
    800042c4:	00009517          	auipc	a0,0x9
    800042c8:	d8450513          	addi	a0,a0,-636 # 8000d048 <_ZZ3numiiiiE1t+0x118>
    800042cc:	364050ef          	jal	ra,80009630 <printf_>
    800042d0:	00813783          	ld	a5,8(sp)
    800042d4:	00004bb7          	lui	s7,0x4
    800042d8:	fff00c13          	li	s8,-1
    800042dc:	0007b403          	ld	s0,0(a5)
    800042e0:	00000d13          	li	s10,0
    800042e4:	0000ac97          	auipc	s9,0xa
    800042e8:	9cccbc83          	ld	s9,-1588(s9) # 8000dcb0 <__clz_tab+0x190>
    800042ec:	01740bb3          	add	s7,s0,s7
    800042f0:	03fc1c13          	slli	s8,s8,0x3f
    800042f4:	00043503          	ld	a0,0(s0)
    800042f8:	00048593          	mv	a1,s1
    800042fc:	759050ef          	jal	ra,8000a254 <__divdf3>
    80004300:	000c8593          	mv	a1,s9
    80004304:	31c070ef          	jal	ra,8000b620 <__subdf3>
    80004308:	00000593          	li	a1,0
    8000430c:	00050a93          	mv	s5,a0
    80004310:	249060ef          	jal	ra,8000ad58 <__gedf2>
    80004314:	00055463          	bgez	a0,8000431c <checkSTREAMresults+0x3b8>
    80004318:	015c4ab3          	xor	s5,s8,s5
    8000431c:	00098593          	mv	a1,s3
    80004320:	000a8513          	mv	a0,s5
    80004324:	235060ef          	jal	ra,8000ad58 <__gedf2>
    80004328:	00a05463          	blez	a0,80004330 <checkSTREAMresults+0x3cc>
    8000432c:	001d0d1b          	addiw	s10,s10,1
    80004330:	00840413          	addi	s0,s0,8
    80004334:	fc8b90e3          	bne	s7,s0,800042f4 <checkSTREAMresults+0x390>
    80004338:	000d0593          	mv	a1,s10
    8000433c:	00009517          	auipc	a0,0x9
    80004340:	d3450513          	addi	a0,a0,-716 # 8000d070 <_ZZ3numiiiiE1t+0x140>
    80004344:	2ec050ef          	jal	ra,80009630 <printf_>
    80004348:	00090593          	mv	a1,s2
    8000434c:	000a0513          	mv	a0,s4
    80004350:	705050ef          	jal	ra,8000a254 <__divdf3>
    80004354:	00000593          	li	a1,0
    80004358:	00050413          	mv	s0,a0
    8000435c:	1fd060ef          	jal	ra,8000ad58 <__gedf2>
    80004360:	00055863          	bgez	a0,80004370 <checkSTREAMresults+0x40c>
    80004364:	fff00793          	li	a5,-1
    80004368:	03f79793          	slli	a5,a5,0x3f
    8000436c:	0087c433          	xor	s0,a5,s0
    80004370:	00098593          	mv	a1,s3
    80004374:	00040513          	mv	a0,s0
    80004378:	1e1060ef          	jal	ra,8000ad58 <__gedf2>
    8000437c:	12a05063          	blez	a0,8000449c <checkSTREAMresults+0x538>
    80004380:	00098593          	mv	a1,s3
    80004384:	00009517          	auipc	a0,0x9
    80004388:	d1c50513          	addi	a0,a0,-740 # 8000d0a0 <_ZZ3numiiiiE1t+0x170>
    8000438c:	2a4050ef          	jal	ra,80009630 <printf_>
    80004390:	00000593          	li	a1,0
    80004394:	000a0513          	mv	a0,s4
    80004398:	1c1060ef          	jal	ra,8000ad58 <__gedf2>
    8000439c:	000a0793          	mv	a5,s4
    800043a0:	00055863          	bgez	a0,800043b0 <checkSTREAMresults+0x44c>
    800043a4:	fff00793          	li	a5,-1
    800043a8:	03f79793          	slli	a5,a5,0x3f
    800043ac:	00fa47b3          	xor	a5,s4,a5
    800043b0:	00078513          	mv	a0,a5
    800043b4:	00090593          	mv	a1,s2
    800043b8:	69d050ef          	jal	ra,8000a254 <__divdf3>
    800043bc:	00050693          	mv	a3,a0
    800043c0:	000a0613          	mv	a2,s4
    800043c4:	00090593          	mv	a1,s2
    800043c8:	00009517          	auipc	a0,0x9
    800043cc:	bd050513          	addi	a0,a0,-1072 # 8000cf98 <_ZZ3numiiiiE1t+0x68>
    800043d0:	260050ef          	jal	ra,80009630 <printf_>
    800043d4:	00098593          	mv	a1,s3
    800043d8:	00009517          	auipc	a0,0x9
    800043dc:	c7050513          	addi	a0,a0,-912 # 8000d048 <_ZZ3numiiiiE1t+0x118>
    800043e0:	250050ef          	jal	ra,80009630 <printf_>
    800043e4:	01013783          	ld	a5,16(sp)
    800043e8:	00004ab7          	lui	s5,0x4
    800043ec:	fff00b13          	li	s6,-1
    800043f0:	0007b403          	ld	s0,0(a5)
    800043f4:	00000a13          	li	s4,0
    800043f8:	0000ab97          	auipc	s7,0xa
    800043fc:	8b8bbb83          	ld	s7,-1864(s7) # 8000dcb0 <__clz_tab+0x190>
    80004400:	01540ab3          	add	s5,s0,s5
    80004404:	03fb1b13          	slli	s6,s6,0x3f
    80004408:	00043503          	ld	a0,0(s0)
    8000440c:	00090593          	mv	a1,s2
    80004410:	645050ef          	jal	ra,8000a254 <__divdf3>
    80004414:	000b8593          	mv	a1,s7
    80004418:	208070ef          	jal	ra,8000b620 <__subdf3>
    8000441c:	00000593          	li	a1,0
    80004420:	00050493          	mv	s1,a0
    80004424:	135060ef          	jal	ra,8000ad58 <__gedf2>
    80004428:	00055463          	bgez	a0,80004430 <checkSTREAMresults+0x4cc>
    8000442c:	009b44b3          	xor	s1,s6,s1
    80004430:	00098593          	mv	a1,s3
    80004434:	00048513          	mv	a0,s1
    80004438:	121060ef          	jal	ra,8000ad58 <__gedf2>
    8000443c:	00a05463          	blez	a0,80004444 <checkSTREAMresults+0x4e0>
    80004440:	001a0a1b          	addiw	s4,s4,1
    80004444:	00840413          	addi	s0,s0,8
    80004448:	fc8a90e3          	bne	s5,s0,80004408 <checkSTREAMresults+0x4a4>
    8000444c:	08013403          	ld	s0,128(sp)
    80004450:	08813083          	ld	ra,136(sp)
    80004454:	07813483          	ld	s1,120(sp)
    80004458:	07013903          	ld	s2,112(sp)
    8000445c:	06813983          	ld	s3,104(sp)
    80004460:	05813a83          	ld	s5,88(sp)
    80004464:	05013b03          	ld	s6,80(sp)
    80004468:	04813b83          	ld	s7,72(sp)
    8000446c:	04013c03          	ld	s8,64(sp)
    80004470:	03813c83          	ld	s9,56(sp)
    80004474:	03013d03          	ld	s10,48(sp)
    80004478:	02813d83          	ld	s11,40(sp)
    8000447c:	000a0593          	mv	a1,s4
    80004480:	06013a03          	ld	s4,96(sp)
    80004484:	00009517          	auipc	a0,0x9
    80004488:	c5c50513          	addi	a0,a0,-932 # 8000d0e0 <_ZZ3numiiiiE1t+0x1b0>
    8000448c:	09010113          	addi	sp,sp,144
    80004490:	1a00506f          	j	80009630 <printf_>
    80004494:	00000b13          	li	s6,0
    80004498:	d99ff06f          	j	80004230 <checkSTREAMresults+0x2cc>
    8000449c:	040b1663          	bnez	s6,800044e8 <checkSTREAMresults+0x584>
    800044a0:	08013403          	ld	s0,128(sp)
    800044a4:	08813083          	ld	ra,136(sp)
    800044a8:	07813483          	ld	s1,120(sp)
    800044ac:	07013903          	ld	s2,112(sp)
    800044b0:	06013a03          	ld	s4,96(sp)
    800044b4:	05813a83          	ld	s5,88(sp)
    800044b8:	05013b03          	ld	s6,80(sp)
    800044bc:	04813b83          	ld	s7,72(sp)
    800044c0:	04013c03          	ld	s8,64(sp)
    800044c4:	03813c83          	ld	s9,56(sp)
    800044c8:	03013d03          	ld	s10,48(sp)
    800044cc:	02813d83          	ld	s11,40(sp)
    800044d0:	00098593          	mv	a1,s3
    800044d4:	06813983          	ld	s3,104(sp)
    800044d8:	00009517          	auipc	a0,0x9
    800044dc:	c3850513          	addi	a0,a0,-968 # 8000d110 <_ZZ3numiiiiE1t+0x1e0>
    800044e0:	09010113          	addi	sp,sp,144
    800044e4:	14c0506f          	j	80009630 <printf_>
    800044e8:	08813083          	ld	ra,136(sp)
    800044ec:	08013403          	ld	s0,128(sp)
    800044f0:	07813483          	ld	s1,120(sp)
    800044f4:	07013903          	ld	s2,112(sp)
    800044f8:	06813983          	ld	s3,104(sp)
    800044fc:	06013a03          	ld	s4,96(sp)
    80004500:	05813a83          	ld	s5,88(sp)
    80004504:	05013b03          	ld	s6,80(sp)
    80004508:	04813b83          	ld	s7,72(sp)
    8000450c:	04013c03          	ld	s8,64(sp)
    80004510:	03813c83          	ld	s9,56(sp)
    80004514:	03013d03          	ld	s10,48(sp)
    80004518:	02813d83          	ld	s11,40(sp)
    8000451c:	09010113          	addi	sp,sp,144
    80004520:	00008067          	ret

0000000080004524 <main_stream>:
    80004524:	e3010113          	addi	sp,sp,-464
    80004528:	00004537          	lui	a0,0x4
    8000452c:	1c113423          	sd	ra,456(sp)
    80004530:	1c813023          	sd	s0,448(sp)
    80004534:	1a913c23          	sd	s1,440(sp)
    80004538:	1b213823          	sd	s2,432(sp)
    8000453c:	00017417          	auipc	s0,0x17
    80004540:	30c40413          	addi	s0,s0,780 # 8001b848 <a>
    80004544:	1b313423          	sd	s3,424(sp)
    80004548:	1b413023          	sd	s4,416(sp)
    8000454c:	19513c23          	sd	s5,408(sp)
    80004550:	19613823          	sd	s6,400(sp)
    80004554:	19713423          	sd	s7,392(sp)
    80004558:	19813023          	sd	s8,384(sp)
    8000455c:	17913c23          	sd	s9,376(sp)
    80004560:	17a13823          	sd	s10,368(sp)
    80004564:	17b13423          	sd	s11,360(sp)
    80004568:	a74fe0ef          	jal	ra,800027dc <alloc_buffer>
    8000456c:	00a43023          	sd	a0,0(s0)
    80004570:	00004537          	lui	a0,0x4
    80004574:	a68fe0ef          	jal	ra,800027dc <alloc_buffer>
    80004578:	00017917          	auipc	s2,0x17
    8000457c:	2c890913          	addi	s2,s2,712 # 8001b840 <b>
    80004580:	00a93023          	sd	a0,0(s2)
    80004584:	00004537          	lui	a0,0x4
    80004588:	a54fe0ef          	jal	ra,800027dc <alloc_buffer>
    8000458c:	00017497          	auipc	s1,0x17
    80004590:	2ac48493          	addi	s1,s1,684 # 8001b838 <c>
    80004594:	00a4b023          	sd	a0,0(s1)
    80004598:	00009517          	auipc	a0,0x9
    8000459c:	bb850513          	addi	a0,a0,-1096 # 8000d150 <_ZZ3numiiiiE1t+0x220>
    800045a0:	090050ef          	jal	ra,80009630 <printf_>
    800045a4:	00009517          	auipc	a0,0x9
    800045a8:	bec50513          	addi	a0,a0,-1044 # 8000d190 <_ZZ3numiiiiE1t+0x260>
    800045ac:	084050ef          	jal	ra,80009630 <printf_>
    800045b0:	00009517          	auipc	a0,0x9
    800045b4:	ba050513          	addi	a0,a0,-1120 # 8000d150 <_ZZ3numiiiiE1t+0x220>
    800045b8:	078050ef          	jal	ra,80009630 <printf_>
    800045bc:	00800593          	li	a1,8
    800045c0:	00009517          	auipc	a0,0x9
    800045c4:	bf850513          	addi	a0,a0,-1032 # 8000d1b8 <_ZZ3numiiiiE1t+0x288>
    800045c8:	068050ef          	jal	ra,80009630 <printf_>
    800045cc:	00009517          	auipc	a0,0x9
    800045d0:	b8450513          	addi	a0,a0,-1148 # 8000d150 <_ZZ3numiiiiE1t+0x220>
    800045d4:	05c050ef          	jal	ra,80009630 <printf_>
    800045d8:	000015b7          	lui	a1,0x1
    800045dc:	00000613          	li	a2,0
    800045e0:	80058593          	addi	a1,a1,-2048 # 800 <_start-0x7ffff800>
    800045e4:	00009517          	auipc	a0,0x9
    800045e8:	c0450513          	addi	a0,a0,-1020 # 8000d1e8 <_ZZ3numiiiiE1t+0x2b8>
    800045ec:	044050ef          	jal	ra,80009630 <printf_>
    800045f0:	00009617          	auipc	a2,0x9
    800045f4:	6c863603          	ld	a2,1736(a2) # 8000dcb8 <__clz_tab+0x198>
    800045f8:	00009597          	auipc	a1,0x9
    800045fc:	6c85b583          	ld	a1,1736(a1) # 8000dcc0 <__clz_tab+0x1a0>
    80004600:	00009517          	auipc	a0,0x9
    80004604:	c2050513          	addi	a0,a0,-992 # 8000d220 <_ZZ3numiiiiE1t+0x2f0>
    80004608:	028050ef          	jal	ra,80009630 <printf_>
    8000460c:	00009617          	auipc	a2,0x9
    80004610:	6bc63603          	ld	a2,1724(a2) # 8000dcc8 <__clz_tab+0x1a8>
    80004614:	00009597          	auipc	a1,0x9
    80004618:	6bc5b583          	ld	a1,1724(a1) # 8000dcd0 <__clz_tab+0x1b0>
    8000461c:	00009517          	auipc	a0,0x9
    80004620:	c3450513          	addi	a0,a0,-972 # 8000d250 <_ZZ3numiiiiE1t+0x320>
    80004624:	00c050ef          	jal	ra,80009630 <printf_>
    80004628:	00a00593          	li	a1,10
    8000462c:	00009517          	auipc	a0,0x9
    80004630:	c5450513          	addi	a0,a0,-940 # 8000d280 <_ZZ3numiiiiE1t+0x350>
    80004634:	7fd040ef          	jal	ra,80009630 <printf_>
    80004638:	00009517          	auipc	a0,0x9
    8000463c:	c7050513          	addi	a0,a0,-912 # 8000d2a8 <_ZZ3numiiiiE1t+0x378>
    80004640:	7f1040ef          	jal	ra,80009630 <printf_>
    80004644:	00009517          	auipc	a0,0x9
    80004648:	cac50513          	addi	a0,a0,-852 # 8000d2f0 <_ZZ3numiiiiE1t+0x3c0>
    8000464c:	7e5040ef          	jal	ra,80009630 <printf_>
    80004650:	00043883          	ld	a7,0(s0)
    80004654:	00093503          	ld	a0,0(s2)
    80004658:	0004b603          	ld	a2,0(s1)
    8000465c:	00000793          	li	a5,0
    80004660:	00009817          	auipc	a6,0x9
    80004664:	65083803          	ld	a6,1616(a6) # 8000dcb0 <__clz_tab+0x190>
    80004668:	00009597          	auipc	a1,0x9
    8000466c:	6285b583          	ld	a1,1576(a1) # 8000dc90 <__clz_tab+0x170>
    80004670:	00004737          	lui	a4,0x4
    80004674:	00f886b3          	add	a3,a7,a5
    80004678:	0106b023          	sd	a6,0(a3)
    8000467c:	00f506b3          	add	a3,a0,a5
    80004680:	00b6b023          	sd	a1,0(a3)
    80004684:	00f606b3          	add	a3,a2,a5
    80004688:	0006b023          	sd	zero,0(a3)
    8000468c:	00878793          	addi	a5,a5,8
    80004690:	fee792e3          	bne	a5,a4,80004674 <main_stream+0x150>
    80004694:	00009517          	auipc	a0,0x9
    80004698:	abc50513          	addi	a0,a0,-1348 # 8000d150 <_ZZ3numiiiiE1t+0x220>
    8000469c:	795040ef          	jal	ra,80009630 <printf_>
    800046a0:	fd8ff0ef          	jal	ra,80003e78 <checktick>
    800046a4:	00050993          	mv	s3,a0
    800046a8:	42a05863          	blez	a0,80004ad8 <main_stream+0x5b4>
    800046ac:	00050593          	mv	a1,a0
    800046b0:	00009517          	auipc	a0,0x9
    800046b4:	c7850513          	addi	a0,a0,-904 # 8000d328 <_ZZ3numiiiiE1t+0x3f8>
    800046b8:	779040ef          	jal	ra,80009630 <printf_>
    800046bc:	f90ff0ef          	jal	ra,80003e4c <mysecond>
    800046c0:	00043a03          	ld	s4,0(s0)
    800046c4:	00004b37          	lui	s6,0x4
    800046c8:	00050a93          	mv	s5,a0
    800046cc:	016a0b33          	add	s6,s4,s6
    800046d0:	000a3583          	ld	a1,0(s4)
    800046d4:	008a0a13          	addi	s4,s4,8
    800046d8:	00058513          	mv	a0,a1
    800046dc:	2bc050ef          	jal	ra,80009998 <__adddf3>
    800046e0:	feaa3c23          	sd	a0,-8(s4)
    800046e4:	ff6a16e3          	bne	s4,s6,800046d0 <main_stream+0x1ac>
    800046e8:	f64ff0ef          	jal	ra,80003e4c <mysecond>
    800046ec:	000a8593          	mv	a1,s5
    800046f0:	731060ef          	jal	ra,8000b620 <__subdf3>
    800046f4:	00009597          	auipc	a1,0x9
    800046f8:	58c5b583          	ld	a1,1420(a1) # 8000dc80 <__clz_tab+0x160>
    800046fc:	14d060ef          	jal	ra,8000b048 <__muldf3>
    80004700:	00050a13          	mv	s4,a0
    80004704:	27c060ef          	jal	ra,8000a980 <__fixdfsi>
    80004708:	0005059b          	sext.w	a1,a0
    8000470c:	00009517          	auipc	a0,0x9
    80004710:	cac50513          	addi	a0,a0,-852 # 8000d3b8 <_ZZ3numiiiiE1t+0x488>
    80004714:	71d040ef          	jal	ra,80009630 <printf_>
    80004718:	00098513          	mv	a0,s3
    8000471c:	3bc060ef          	jal	ra,8000aad8 <__floatsidf>
    80004720:	00050593          	mv	a1,a0
    80004724:	000a0513          	mv	a0,s4
    80004728:	32d050ef          	jal	ra,8000a254 <__divdf3>
    8000472c:	254060ef          	jal	ra,8000a980 <__fixdfsi>
    80004730:	0005059b          	sext.w	a1,a0
    80004734:	00009517          	auipc	a0,0x9
    80004738:	cc450513          	addi	a0,a0,-828 # 8000d3f8 <_ZZ3numiiiiE1t+0x4c8>
    8000473c:	6f5040ef          	jal	ra,80009630 <printf_>
    80004740:	00009517          	auipc	a0,0x9
    80004744:	cd050513          	addi	a0,a0,-816 # 8000d410 <_ZZ3numiiiiE1t+0x4e0>
    80004748:	6e9040ef          	jal	ra,80009630 <printf_>
    8000474c:	00009517          	auipc	a0,0x9
    80004750:	cfc50513          	addi	a0,a0,-772 # 8000d448 <_ZZ3numiiiiE1t+0x518>
    80004754:	6dd040ef          	jal	ra,80009630 <printf_>
    80004758:	00009517          	auipc	a0,0x9
    8000475c:	9f850513          	addi	a0,a0,-1544 # 8000d150 <_ZZ3numiiiiE1t+0x220>
    80004760:	6d1040ef          	jal	ra,80009630 <printf_>
    80004764:	00009517          	auipc	a0,0x9
    80004768:	d1c50513          	addi	a0,a0,-740 # 8000d480 <_ZZ3numiiiiE1t+0x550>
    8000476c:	6c5040ef          	jal	ra,80009630 <printf_>
    80004770:	00009517          	auipc	a0,0x9
    80004774:	d4850513          	addi	a0,a0,-696 # 8000d4b8 <_ZZ3numiiiiE1t+0x588>
    80004778:	6b9040ef          	jal	ra,80009630 <printf_>
    8000477c:	00009517          	auipc	a0,0x9
    80004780:	d6c50513          	addi	a0,a0,-660 # 8000d4e8 <_ZZ3numiiiiE1t+0x5b8>
    80004784:	6ad040ef          	jal	ra,80009630 <printf_>
    80004788:	00009517          	auipc	a0,0x9
    8000478c:	9c850513          	addi	a0,a0,-1592 # 8000d150 <_ZZ3numiiiiE1t+0x220>
    80004790:	6a1040ef          	jal	ra,80009630 <printf_>
    80004794:	00009b97          	auipc	s7,0x9
    80004798:	504bbb83          	ld	s7,1284(s7) # 8000dc98 <__clz_tab+0x178>
    8000479c:	02010993          	addi	s3,sp,32
    800047a0:	00000a93          	li	s5,0
    800047a4:	00009c97          	auipc	s9,0x9
    800047a8:	d6cc8c93          	addi	s9,s9,-660 # 8000d510 <_ZZ3numiiiiE1t+0x5e0>
    800047ac:	00004b37          	lui	s6,0x4
    800047b0:	000b8c13          	mv	s8,s7
    800047b4:	00a00613          	li	a2,10
    800047b8:	000a8593          	mv	a1,s5
    800047bc:	000c8513          	mv	a0,s9
    800047c0:	671040ef          	jal	ra,80009630 <printf_>
    800047c4:	e88ff0ef          	jal	ra,80003e4c <mysecond>
    800047c8:	00050593          	mv	a1,a0
    800047cc:	0004b603          	ld	a2,0(s1)
    800047d0:	00043503          	ld	a0,0(s0)
    800047d4:	00000793          	li	a5,0
    800047d8:	00f50733          	add	a4,a0,a5
    800047dc:	00073683          	ld	a3,0(a4) # 4000 <_start-0x7fffc000>
    800047e0:	00f60733          	add	a4,a2,a5
    800047e4:	00878793          	addi	a5,a5,8
    800047e8:	00d73023          	sd	a3,0(a4)
    800047ec:	ff6796e3          	bne	a5,s6,800047d8 <main_stream+0x2b4>
    800047f0:	00b13423          	sd	a1,8(sp)
    800047f4:	e58ff0ef          	jal	ra,80003e4c <mysecond>
    800047f8:	00813583          	ld	a1,8(sp)
    800047fc:	00000a13          	li	s4,0
    80004800:	621060ef          	jal	ra,8000b620 <__subdf3>
    80004804:	00a9b023          	sd	a0,0(s3)
    80004808:	e44ff0ef          	jal	ra,80003e4c <mysecond>
    8000480c:	0004b703          	ld	a4,0(s1)
    80004810:	00093683          	ld	a3,0(s2)
    80004814:	00050d13          	mv	s10,a0
    80004818:	014707b3          	add	a5,a4,s4
    8000481c:	0007b503          	ld	a0,0(a5)
    80004820:	000b8593          	mv	a1,s7
    80004824:	01468db3          	add	s11,a3,s4
    80004828:	00d13823          	sd	a3,16(sp)
    8000482c:	00e13423          	sd	a4,8(sp)
    80004830:	019060ef          	jal	ra,8000b048 <__muldf3>
    80004834:	00adb023          	sd	a0,0(s11)
    80004838:	008a0a13          	addi	s4,s4,8
    8000483c:	00813703          	ld	a4,8(sp)
    80004840:	01013683          	ld	a3,16(sp)
    80004844:	fd6a1ae3          	bne	s4,s6,80004818 <main_stream+0x2f4>
    80004848:	e04ff0ef          	jal	ra,80003e4c <mysecond>
    8000484c:	000d0593          	mv	a1,s10
    80004850:	5d1060ef          	jal	ra,8000b620 <__subdf3>
    80004854:	04a9b823          	sd	a0,80(s3)
    80004858:	df4ff0ef          	jal	ra,80003e4c <mysecond>
    8000485c:	00043603          	ld	a2,0(s0)
    80004860:	00093683          	ld	a3,0(s2)
    80004864:	0004b803          	ld	a6,0(s1)
    80004868:	00050d13          	mv	s10,a0
    8000486c:	00000a13          	li	s4,0
    80004870:	014607b3          	add	a5,a2,s4
    80004874:	01468733          	add	a4,a3,s4
    80004878:	00073583          	ld	a1,0(a4)
    8000487c:	0007b503          	ld	a0,0(a5)
    80004880:	01480db3          	add	s11,a6,s4
    80004884:	01013c23          	sd	a6,24(sp)
    80004888:	00c13823          	sd	a2,16(sp)
    8000488c:	00d13423          	sd	a3,8(sp)
    80004890:	108050ef          	jal	ra,80009998 <__adddf3>
    80004894:	00adb023          	sd	a0,0(s11)
    80004898:	008a0a13          	addi	s4,s4,8
    8000489c:	00813683          	ld	a3,8(sp)
    800048a0:	01013603          	ld	a2,16(sp)
    800048a4:	01813803          	ld	a6,24(sp)
    800048a8:	fd6a14e3          	bne	s4,s6,80004870 <main_stream+0x34c>
    800048ac:	da0ff0ef          	jal	ra,80003e4c <mysecond>
    800048b0:	000d0593          	mv	a1,s10
    800048b4:	56d060ef          	jal	ra,8000b620 <__subdf3>
    800048b8:	0aa9b023          	sd	a0,160(s3)
    800048bc:	d90ff0ef          	jal	ra,80003e4c <mysecond>
    800048c0:	0004b683          	ld	a3,0(s1)
    800048c4:	00093d83          	ld	s11,0(s2)
    800048c8:	00043603          	ld	a2,0(s0)
    800048cc:	00050d13          	mv	s10,a0
    800048d0:	00000a13          	li	s4,0
    800048d4:	01468733          	add	a4,a3,s4
    800048d8:	00073503          	ld	a0,0(a4)
    800048dc:	014607b3          	add	a5,a2,s4
    800048e0:	000c0593          	mv	a1,s8
    800048e4:	00c13c23          	sd	a2,24(sp)
    800048e8:	00f13823          	sd	a5,16(sp)
    800048ec:	00d13423          	sd	a3,8(sp)
    800048f0:	758060ef          	jal	ra,8000b048 <__muldf3>
    800048f4:	014d8733          	add	a4,s11,s4
    800048f8:	00073583          	ld	a1,0(a4)
    800048fc:	008a0a13          	addi	s4,s4,8
    80004900:	098050ef          	jal	ra,80009998 <__adddf3>
    80004904:	01013783          	ld	a5,16(sp)
    80004908:	00813683          	ld	a3,8(sp)
    8000490c:	01813603          	ld	a2,24(sp)
    80004910:	00a7b023          	sd	a0,0(a5)
    80004914:	fd6a10e3          	bne	s4,s6,800048d4 <main_stream+0x3b0>
    80004918:	d34ff0ef          	jal	ra,80003e4c <mysecond>
    8000491c:	000d0593          	mv	a1,s10
    80004920:	501060ef          	jal	ra,8000b620 <__subdf3>
    80004924:	0ea9b823          	sd	a0,240(s3)
    80004928:	001a8a9b          	addiw	s5,s5,1
    8000492c:	00a00793          	li	a5,10
    80004930:	00898993          	addi	s3,s3,8
    80004934:	e8fa90e3          	bne	s5,a5,800047b4 <main_stream+0x290>
    80004938:	02810a93          	addi	s5,sp,40
    8000493c:	07010b13          	addi	s6,sp,112
    80004940:	00017417          	auipc	s0,0x17
    80004944:	eb840413          	addi	s0,s0,-328 # 8001b7f8 <maxtime>
    80004948:	00017497          	auipc	s1,0x17
    8000494c:	e9048493          	addi	s1,s1,-368 # 8001b7d8 <avgtime>
    80004950:	00009917          	auipc	s2,0x9
    80004954:	4f090913          	addi	s2,s2,1264 # 8000de40 <mintime>
    80004958:	00040d93          	mv	s11,s0
    8000495c:	000a8c93          	mv	s9,s5
    80004960:	00048993          	mv	s3,s1
    80004964:	00090c13          	mv	s8,s2
    80004968:	00040b93          	mv	s7,s0
    8000496c:	000cba03          	ld	s4,0(s9)
    80004970:	0009b503          	ld	a0,0(s3)
    80004974:	000a0593          	mv	a1,s4
    80004978:	020050ef          	jal	ra,80009998 <__adddf3>
    8000497c:	00093d03          	ld	s10,0(s2)
    80004980:	00a9b023          	sd	a0,0(s3)
    80004984:	000a0513          	mv	a0,s4
    80004988:	000d0593          	mv	a1,s10
    8000498c:	3cc060ef          	jal	ra,8000ad58 <__gedf2>
    80004990:	00a04463          	bgtz	a0,80004998 <main_stream+0x474>
    80004994:	000a0d13          	mv	s10,s4
    80004998:	01a93023          	sd	s10,0(s2)
    8000499c:	00043d03          	ld	s10,0(s0)
    800049a0:	000a0513          	mv	a0,s4
    800049a4:	000d0593          	mv	a1,s10
    800049a8:	528060ef          	jal	ra,8000aed0 <__ledf2>
    800049ac:	00054463          	bltz	a0,800049b4 <main_stream+0x490>
    800049b0:	000a0d13          	mv	s10,s4
    800049b4:	01a43023          	sd	s10,0(s0)
    800049b8:	00898993          	addi	s3,s3,8
    800049bc:	050c8c93          	addi	s9,s9,80
    800049c0:	00890913          	addi	s2,s2,8
    800049c4:	00840413          	addi	s0,s0,8
    800049c8:	fbb992e3          	bne	s3,s11,8000496c <main_stream+0x448>
    800049cc:	008a8a93          	addi	s5,s5,8 # 4008 <_start-0x7fffbff8>
    800049d0:	f76a98e3          	bne	s5,s6,80004940 <main_stream+0x41c>
    800049d4:	00009517          	auipc	a0,0x9
    800049d8:	b4c50513          	addi	a0,a0,-1204 # 8000d520 <_ZZ3numiiiiE1t+0x5f0>
    800049dc:	455040ef          	jal	ra,80009630 <printf_>
    800049e0:	00000413          	li	s0,0
    800049e4:	00009d17          	auipc	s10,0x9
    800049e8:	2f4d3d03          	ld	s10,756(s10) # 8000dcd8 <__clz_tab+0x1b8>
    800049ec:	00009c97          	auipc	s9,0x9
    800049f0:	bdcc8c93          	addi	s9,s9,-1060 # 8000d5c8 <bytes>
    800049f4:	00009b17          	auipc	s6,0x9
    800049f8:	294b3b03          	ld	s6,660(s6) # 8000dc88 <__clz_tab+0x168>
    800049fc:	00009a97          	auipc	s5,0x9
    80004a00:	beca8a93          	addi	s5,s5,-1044 # 8000d5e8 <label>
    80004a04:	00009a17          	auipc	s4,0x9
    80004a08:	b5ca0a13          	addi	s4,s4,-1188 # 8000d560 <_ZZ3numiiiiE1t+0x630>
    80004a0c:	02000993          	li	s3,32
    80004a10:	0004b503          	ld	a0,0(s1)
    80004a14:	000d0593          	mv	a1,s10
    80004a18:	00848493          	addi	s1,s1,8
    80004a1c:	039050ef          	jal	ra,8000a254 <__divdf3>
    80004a20:	008c07b3          	add	a5,s8,s0
    80004a24:	008c8733          	add	a4,s9,s0
    80004a28:	0007b903          	ld	s2,0(a5)
    80004a2c:	008b87b3          	add	a5,s7,s0
    80004a30:	0007b783          	ld	a5,0(a5)
    80004a34:	fea4bc23          	sd	a0,-8(s1)
    80004a38:	00a13823          	sd	a0,16(sp)
    80004a3c:	00073503          	ld	a0,0(a4)
    80004a40:	000b0593          	mv	a1,s6
    80004a44:	00f13423          	sd	a5,8(sp)
    80004a48:	600060ef          	jal	ra,8000b048 <__muldf3>
    80004a4c:	00090593          	mv	a1,s2
    80004a50:	005050ef          	jal	ra,8000a254 <__divdf3>
    80004a54:	008a85b3          	add	a1,s5,s0
    80004a58:	00813783          	ld	a5,8(sp)
    80004a5c:	01013683          	ld	a3,16(sp)
    80004a60:	0005b583          	ld	a1,0(a1)
    80004a64:	00050613          	mv	a2,a0
    80004a68:	00090713          	mv	a4,s2
    80004a6c:	000a0513          	mv	a0,s4
    80004a70:	00840413          	addi	s0,s0,8
    80004a74:	3bd040ef          	jal	ra,80009630 <printf_>
    80004a78:	f9341ce3          	bne	s0,s3,80004a10 <main_stream+0x4ec>
    80004a7c:	00008517          	auipc	a0,0x8
    80004a80:	6d450513          	addi	a0,a0,1748 # 8000d150 <_ZZ3numiiiiE1t+0x220>
    80004a84:	3ad040ef          	jal	ra,80009630 <printf_>
    80004a88:	cdcff0ef          	jal	ra,80003f64 <checkSTREAMresults>
    80004a8c:	00008517          	auipc	a0,0x8
    80004a90:	6c450513          	addi	a0,a0,1732 # 8000d150 <_ZZ3numiiiiE1t+0x220>
    80004a94:	39d040ef          	jal	ra,80009630 <printf_>
    80004a98:	1c813083          	ld	ra,456(sp)
    80004a9c:	1c013403          	ld	s0,448(sp)
    80004aa0:	1b813483          	ld	s1,440(sp)
    80004aa4:	1b013903          	ld	s2,432(sp)
    80004aa8:	1a813983          	ld	s3,424(sp)
    80004aac:	1a013a03          	ld	s4,416(sp)
    80004ab0:	19813a83          	ld	s5,408(sp)
    80004ab4:	19013b03          	ld	s6,400(sp)
    80004ab8:	18813b83          	ld	s7,392(sp)
    80004abc:	18013c03          	ld	s8,384(sp)
    80004ac0:	17813c83          	ld	s9,376(sp)
    80004ac4:	17013d03          	ld	s10,368(sp)
    80004ac8:	16813d83          	ld	s11,360(sp)
    80004acc:	00000513          	li	a0,0
    80004ad0:	1d010113          	addi	sp,sp,464
    80004ad4:	00008067          	ret
    80004ad8:	00009517          	auipc	a0,0x9
    80004adc:	89850513          	addi	a0,a0,-1896 # 8000d370 <_ZZ3numiiiiE1t+0x440>
    80004ae0:	351040ef          	jal	ra,80009630 <printf_>
    80004ae4:	00100993          	li	s3,1
    80004ae8:	bd5ff06f          	j	800046bc <main_stream+0x198>

0000000080004aec <pass>:
    80004aec:	ff010113          	addi	sp,sp,-16
    80004af0:	00813023          	sd	s0,0(sp)
    80004af4:	00017417          	auipc	s0,0x17
    80004af8:	d8840413          	addi	s0,s0,-632 # 8001b87c <test_state>
    80004afc:	00042783          	lw	a5,0(s0)
    80004b00:	00009517          	auipc	a0,0x9
    80004b04:	b0850513          	addi	a0,a0,-1272 # 8000d608 <label+0x20>
    80004b08:	00113423          	sd	ra,8(sp)
    80004b0c:	00379713          	slli	a4,a5,0x3
    80004b10:	00009797          	auipc	a5,0x9
    80004b14:	d9078793          	addi	a5,a5,-624 # 8000d8a0 <test_name>
    80004b18:	00e787b3          	add	a5,a5,a4
    80004b1c:	0007b583          	ld	a1,0(a5)
    80004b20:	311040ef          	jal	ra,80009630 <printf_>
    80004b24:	fff00793          	li	a5,-1
    80004b28:	00813083          	ld	ra,8(sp)
    80004b2c:	00f42023          	sw	a5,0(s0)
    80004b30:	00013403          	ld	s0,0(sp)
    80004b34:	01010113          	addi	sp,sp,16
    80004b38:	00008067          	ret

0000000080004b3c <panic>:
    80004b3c:	ff010113          	addi	sp,sp,-16
    80004b40:	00009517          	auipc	a0,0x9
    80004b44:	ad850513          	addi	a0,a0,-1320 # 8000d618 <label+0x30>
    80004b48:	00113423          	sd	ra,8(sp)
    80004b4c:	2e5040ef          	jal	ra,80009630 <printf_>
    80004b50:	fff00513          	li	a0,-1
    80004b54:	200030ef          	jal	ra,80007d54 <_halt>

0000000080004b58 <m_panic>:
    80004b58:	ff010113          	addi	sp,sp,-16
    80004b5c:	00009517          	auipc	a0,0x9
    80004b60:	ad450513          	addi	a0,a0,-1324 # 8000d630 <label+0x48>
    80004b64:	00113423          	sd	ra,8(sp)
    80004b68:	2c9040ef          	jal	ra,80009630 <printf_>
    80004b6c:	fd1ff0ef          	jal	ra,80004b3c <panic>

