
test.bin:     file format binary


Disassembly of section .data:

0000000000000000 <.data>:
       0:	00000093          	li	ra,0
       4:	00000113          	li	sp,0
       8:	00000193          	li	gp,0
       c:	bfa22137          	lui	sp,0xbfa22
      10:	a46d4093          	xori	ra,s10,-1466
      14:	a5c433b7          	lui	t2,0xa5c43
      18:	567a5137          	lui	sp,0x567a5
      1c:	400020b7          	lui	ra,0x40002
      20:	001080b3          	add	ra,ra,ra
      24:	e840b823          	sd	tp,-368(ra) # 0x40001e90
      28:	a700e337          	lui	t1,0xa700e
      2c:	9635e093          	ori	ra,a1,-1693
      30:	b1b07093          	andi	ra,zero,-1253
      34:	400021b7          	lui	gp,0x40002
      38:	003181b3          	add	gp,gp,gp
      3c:	e901b103          	ld	sp,-368(gp) # 0x40001e90
      40:	c3c45137          	lui	sp,0xc3c45
      44:	40002237          	lui	tp,0x40002
      48:	00420233          	add	tp,tp,tp
      4c:	e8123423          	sd	ra,-376(tp) # 0x40001e88
      50:	1443c0b7          	lui	ra,0x1443c
      54:	dccf51b7          	lui	gp,0xdccf5
      58:	aadba037          	lui	zero,0xaadba
      5c:	40c08093          	addi	ra,ra,1036 # 0x1443c40c
      60:	ef61d237          	lui	tp,0xef61d
      64:	9a016293          	ori	t0,sp,-1632
      68:	3cc920b7          	lui	ra,0x3cc92
      6c:	5ef941b7          	lui	gp,0x5ef94
      70:	24fc3137          	lui	sp,0x24fc3
      74:	0fc1ee93          	ori	t4,gp,252
      78:	d0a16393          	ori	t2,sp,-758
      7c:	83d0c113          	xori	sp,ra,-1987
      80:	9d408193          	addi	gp,ra,-1580 # 0x3cc919d4
      84:	2c30c113          	xori	sp,ra,707
      88:	00310263          	beq	sp,gp,0x8c
      8c:	1b10026f          	jal	tp,0xa3c
      90:	0fda22b7          	lui	t0,0xfda2
      94:	8a328793          	addi	a5,t0,-1885 # 0xfda18a3
      98:	92a16a13          	ori	s4,sp,-1750
      9c:	3d39e4b7          	lui	s1,0x3d39e
      a0:	30614293          	xori	t0,sp,774
      a4:	0d118113          	addi	sp,gp,209 # 0x5ef940d1
      a8:	55ddb137          	lui	sp,0x55ddb
      ac:	40002337          	lui	t1,0x40002
      b0:	00630333          	add	t1,t1,t1
      b4:	e9033103          	ld	sp,-368(t1) # 0x40001e90
      b8:	9c61f093          	andi	ra,gp,-1594
      bc:	206681b7          	lui	gp,0x20668
      c0:	59e17193          	andi	gp,sp,1438
      c4:	2dd88313          	addi	t1,a7,733
      c8:	400020b7          	lui	ra,0x40002
      cc:	001080b3          	add	ra,ra,ra
      d0:	e810b823          	sd	ra,-368(ra) # 0x40001e90
      d4:	1cd80093          	addi	ra,a6,461
      d8:	2d0e81b7          	lui	gp,0x2d0e8
      dc:	4541e093          	ori	ra,gp,1108
      e0:	3aea5937          	lui	s2,0x3aea5
      e4:	68617013          	andi	zero,sp,1670
      e8:	98a79137          	lui	sp,0x98a79
      ec:	08a260b7          	lui	ra,0x8a26
      f0:	8a81f393          	andi	t2,gp,-1880
      f4:	d932e113          	ori	sp,t0,-621
      f8:	6ce1d237          	lui	tp,0x6ce1d
      fc:	fe16c193          	xori	gp,a3,-31
     100:	f3410113          	addi	sp,sp,-204 # 0xffffffff98a78f34
     104:	fcc960b7          	lui	ra,0xfcc96
     108:	ad208193          	addi	gp,ra,-1326 # 0xfffffffffcc95ad2
     10c:	00510263          	beq	sp,t0,0x110
     110:	1b9000ef          	jal	ra,0xac8
     114:	400021b7          	lui	gp,0x40002
     118:	003181b3          	add	gp,gp,gp
     11c:	e811b423          	sd	ra,-376(gp) # 0x40001e88
     120:	65c9e0b7          	lui	ra,0x65c9e
     124:	40002137          	lui	sp,0x40002
     128:	00210133          	add	sp,sp,sp
     12c:	e8813003          	ld	zero,-376(sp) # 0x40001e88
     130:	15214db7          	lui	s11,0x15214
     134:	29c921b7          	lui	gp,0x29c92
     138:	400020b7          	lui	ra,0x40002
     13c:	001080b3          	add	ra,ra,ra
     140:	e820b423          	sd	sp,-376(ra) # 0x40001e88
     144:	52917093          	andi	ra,sp,1321
     148:	138b4237          	lui	tp,0x138b4
     14c:	73634193          	xori	gp,t1,1846
     150:	1352e193          	ori	gp,t0,309
     154:	f4937013          	andi	zero,t1,-183
     158:	d3a10293          	addi	t0,sp,-710
     15c:	d2917313          	andi	t1,sp,-727
     160:	08fea137          	lui	sp,0x8fea
     164:	4bcb62b7          	lui	t0,0x4bcb6
     168:	925c53b7          	lui	t2,0x925c5
     16c:	64b0e193          	ori	gp,ra,1611
     170:	6c8f4313          	xori	t1,t5,1736
     174:	b891c093          	xori	ra,gp,-1143
     178:	400021b7          	lui	gp,0x40002
     17c:	003181b3          	add	gp,gp,gp
     180:	e881b083          	ld	ra,-376(gp) # 0x40001e88
     184:	2f02e793          	ori	a5,t0,752
     188:	8f19c0b7          	lui	ra,0x8f19c
     18c:	22138263          	beq	t2,ra,0x3b0
     190:	220000ef          	jal	ra,0x3b0
     194:	ddf3c193          	xori	gp,t2,-545
     198:	f271e093          	ori	ra,gp,-217
     19c:	fee90137          	lui	sp,0xfee90
     1a0:	0671c0b7          	lui	ra,0x671c
     1a4:	759fd2b7          	lui	t0,0x759fd
     1a8:	400023b7          	lui	t2,0x40002
     1ac:	007383b3          	add	t2,t2,t2
     1b0:	e833b423          	sd	gp,-376(t2) # 0x40001e88
     1b4:	a9b80137          	lui	sp,0xa9b80
     1b8:	4cda6337          	lui	t1,0x4cda6
     1bc:	a0c17213          	andi	tp,sp,-1524
     1c0:	8ff0c113          	xori	sp,ra,-1793
     1c4:	43ee4137          	lui	sp,0x43ee4
     1c8:	40c1f193          	andi	gp,gp,1036
     1cc:	c9ddc093          	xori	ra,s11,-867
     1d0:	06e0f113          	andi	sp,ra,110
     1d4:	9f0af2b7          	lui	t0,0x9f0af
     1d8:	40002137          	lui	sp,0x40002
     1dc:	00210133          	add	sp,sp,sp
     1e0:	e9013083          	ld	ra,-368(sp) # 0x40001e90
     1e4:	94728613          	addi	a2,t0,-1721 # 0xffffffff9f0ae947
     1e8:	0546e037          	lui	zero,0x546e
     1ec:	beac7137          	lui	sp,0xbeac7
     1f0:	e882e1b7          	lui	gp,0xe882e
     1f4:	b280e213          	ori	tp,ra,-1240
     1f8:	9184e193          	ori	gp,s1,-1768
     1fc:	61b7a1b7          	lui	gp,0x61b7a
     200:	9524f337          	lui	t1,0x9524f
     204:	64504113          	xori	sp,zero,1605
     208:	400020b7          	lui	ra,0x40002
     20c:	001080b3          	add	ra,ra,ra
     210:	e820b823          	sd	sp,-368(ra) # 0x40001e90
     214:	00010193          	mv	gp,sp
     218:	ee218ee3          	beq	gp,sp,0x114
     21c:	37210093          	addi	ra,sp,882 # 0xffffffffbeac7372
     220:	a4693137          	lui	sp,0xa4693
     224:	8aa2dfb7          	lui	t6,0x8aa2d
     228:	400021b7          	lui	gp,0x40002
     22c:	003181b3          	add	gp,gp,gp
     230:	e851b823          	sd	t0,-368(gp) # 0x40001e90
     234:	98b18093          	addi	ra,gp,-1653
     238:	73217113          	andi	sp,sp,1842
     23c:	40002137          	lui	sp,0x40002
     240:	00210133          	add	sp,sp,sp
     244:	e8313823          	sd	gp,-368(sp) # 0x40001e90
     248:	bd1de093          	ori	ra,s11,-1071
     24c:	01a6f193          	andi	gp,a3,26
     250:	400020b7          	lui	ra,0x40002
     254:	001080b3          	add	ra,ra,ra
     258:	e900b483          	ld	s1,-368(ra) # 0x40001e90
     25c:	d0eae3b7          	lui	t2,0xd0eae
     260:	36b5c137          	lui	sp,0x36b5c
     264:	400021b7          	lui	gp,0x40002
     268:	003181b3          	add	gp,gp,gp
     26c:	e881b103          	ld	sp,-376(gp) # 0x40001e88
     270:	3c980137          	lui	sp,0x3c980
     274:	13718193          	addi	gp,gp,311
     278:	a830e213          	ori	tp,ra,-1405
     27c:	77c380b7          	lui	ra,0x77c38
     280:	1e3e5237          	lui	tp,0x1e3e5
     284:	e0118193          	addi	gp,gp,-511
     288:	400020b7          	lui	ra,0x40002
     28c:	001080b3          	add	ra,ra,ra
     290:	e810b423          	sd	ra,-376(ra) # 0x40001e88
     294:	0327e0b7          	lui	ra,0x327e
     298:	70220a63          	beq	tp,sp,0x9ac
     29c:	710001ef          	jal	gp,0x9ac
     2a0:	32de61b7          	lui	gp,0x32de6
     2a4:	a6132137          	lui	sp,0xa6132
     2a8:	f3117013          	andi	zero,sp,-207
     2ac:	400021b7          	lui	gp,0x40002
     2b0:	003181b3          	add	gp,gp,gp
     2b4:	e8b1b423          	sd	a1,-376(gp) # 0x40001e88
     2b8:	dc7971b7          	lui	gp,0xdc797
     2bc:	400021b7          	lui	gp,0x40002
     2c0:	003181b3          	add	gp,gp,gp
     2c4:	e901b183          	ld	gp,-368(gp) # 0x40001e90
     2c8:	cb7b5037          	lui	zero,0xcb7b5
     2cc:	cdd1f193          	andi	gp,gp,-803
     2d0:	c0339137          	lui	sp,0xc0339
     2d4:	781a5137          	lui	sp,0x781a5
     2d8:	74cd7137          	lui	sp,0x74cd7
     2dc:	ef410193          	addi	gp,sp,-268 # 0x74cd6ef4
     2e0:	f9b060b7          	lui	ra,0xf9b06
     2e4:	03318113          	addi	sp,gp,51
     2e8:	bdb061b7          	lui	gp,0xbdb06
     2ec:	ad2bb1b7          	lui	gp,0xad2bb
     2f0:	5b91ed93          	ori	s11,gp,1465
     2f4:	3ff1c113          	xori	sp,gp,1023
     2f8:	4ed14093          	xori	ra,sp,1261
     2fc:	8810f093          	andi	ra,ra,-1919
     300:	40002137          	lui	sp,0x40002
     304:	00210133          	add	sp,sp,sp
     308:	e9013103          	ld	sp,-368(sp) # 0x40001e90
     30c:	86514293          	xori	t0,sp,-1947
     310:	3621e193          	ori	gp,gp,866
     314:	6c10c093          	xori	ra,ra,1729
     318:	1d6691b7          	lui	gp,0x1d669
     31c:	0611e213          	ori	tp,gp,97
     320:	5eb63137          	lui	sp,0x5eb63
     324:	4c508c63          	beq	ra,t0,0x7fc
     328:	4d4007ef          	jal	a5,0x7fc
     32c:	aa037193          	andi	gp,t1,-1376
     330:	b2a2f193          	andi	gp,t0,-1238
     334:	ce334137          	lui	sp,0xce334
     338:	3c90f137          	lui	sp,0x3c90f
     33c:	cac86137          	lui	sp,0xcac86
     340:	9fda9137          	lui	sp,0x9fda9
     344:	400020b7          	lui	ra,0x40002
     348:	001080b3          	add	ra,ra,ra
     34c:	e810b823          	sd	ra,-368(ra) # 0x40001e90
     350:	d9f1c093          	xori	ra,gp,-609
     354:	400023b7          	lui	t2,0x40002
     358:	007383b3          	add	t2,t2,t2
     35c:	e883b283          	ld	t0,-376(t2) # 0x40001e88
     360:	269252b7          	lui	t0,0x26925
     364:	2f9d81b7          	lui	gp,0x2f9d8
     368:	4db0e193          	ori	gp,ra,1243
     36c:	1083f113          	andi	sp,t2,264
     370:	40002137          	lui	sp,0x40002
     374:	00210133          	add	sp,sp,sp
     378:	e9013183          	ld	gp,-368(sp) # 0x40001e90
     37c:	400021b7          	lui	gp,0x40002
     380:	003181b3          	add	gp,gp,gp
     384:	e821b823          	sd	sp,-368(gp) # 0x40001e90
     388:	6bb2e193          	ori	gp,t0,1723
     38c:	40002137          	lui	sp,0x40002
     390:	00210133          	add	sp,sp,sp
     394:	e8513423          	sd	t0,-376(sp) # 0x40001e88
     398:	3b3900b7          	lui	ra,0x3b390
     39c:	09c38113          	addi	sp,t2,156
     3a0:	ef62e213          	ori	tp,t0,-266
     3a4:	cb208393          	addi	t2,ra,-846 # 0x3b38fcb2
     3a8:	34110863          	beq	sp,ra,0x6f8
     3ac:	34c000ef          	jal	ra,0x6f8
     3b0:	dc414493          	xori	s1,sp,-572
     3b4:	40002237          	lui	tp,0x40002
     3b8:	00420233          	add	tp,tp,tp
     3bc:	e8523823          	sd	t0,-368(tp) # 0x40001e90
     3c0:	912e3137          	lui	sp,0x912e3
     3c4:	ea8870b7          	lui	ra,0xea887
     3c8:	8cf17393          	andi	t2,sp,-1841
     3cc:	9c9671b7          	lui	gp,0x9c967
     3d0:	400020b7          	lui	ra,0x40002
     3d4:	001080b3          	add	ra,ra,ra
     3d8:	e900b183          	ld	gp,-368(ra) # 0x40001e90
     3dc:	1350e313          	ori	t1,ra,309
     3e0:	40002137          	lui	sp,0x40002
     3e4:	00210133          	add	sp,sp,sp
     3e8:	e8813183          	ld	gp,-376(sp) # 0x40001e88
     3ec:	400020b7          	lui	ra,0x40002
     3f0:	001080b3          	add	ra,ra,ra
     3f4:	e900b083          	ld	ra,-368(ra) # 0x40001e90
     3f8:	8d629137          	lui	sp,0x8d629
     3fc:	d2a24013          	xori	zero,tp,-726
     400:	9d3bc3b7          	lui	t2,0x9d3bc
     404:	38eaa137          	lui	sp,0x38eaa
     408:	2540f013          	andi	zero,ra,596
     40c:	d4a18093          	addi	ra,gp,-694 # 0xffffffff9c966d4a
     410:	40002137          	lui	sp,0x40002
     414:	00210133          	add	sp,sp,sp
     418:	e9013103          	ld	sp,-368(sp) # 0x40001e90
     41c:	23dd5137          	lui	sp,0x23dd5
     420:	cfa840b7          	lui	ra,0xcfa84
     424:	fdd14193          	xori	gp,sp,-35
     428:	3bb0e113          	ori	sp,ra,955
     42c:	37934093          	xori	ra,t1,889
     430:	2081c093          	xori	ra,gp,520
     434:	cdb3f193          	andi	gp,t2,-805
     438:	08310a63          	beq	sp,gp,0x4cc
     43c:	090000ef          	jal	ra,0x4cc
     440:	f27141b7          	lui	gp,0xf2714
     444:	40002137          	lui	sp,0x40002
     448:	00210133          	add	sp,sp,sp
     44c:	e8113423          	sd	ra,-376(sp) # 0x40001e88
     450:	0610c193          	xori	gp,ra,97
     454:	971b42b7          	lui	t0,0x971b4
     458:	5cf10f13          	addi	t5,sp,1487
     45c:	2bf0e013          	ori	zero,ra,703
     460:	a356f0b7          	lui	ra,0xa356f
     464:	60917293          	andi	t0,sp,1545
     468:	40002137          	lui	sp,0x40002
     46c:	00210133          	add	sp,sp,sp
     470:	e8813303          	ld	t1,-376(sp) # 0x40001e88
     474:	7ca733b7          	lui	t2,0x7ca73
     478:	71814213          	xori	tp,sp,1816
     47c:	91e711b7          	lui	gp,0x91e71
     480:	53d1e113          	ori	sp,gp,1341
     484:	400021b7          	lui	gp,0x40002
     488:	003181b3          	add	gp,gp,gp
     48c:	e881b083          	ld	ra,-376(gp) # 0x40001e88
     490:	400021b7          	lui	gp,0x40002
     494:	003181b3          	add	gp,gp,gp
     498:	e821b423          	sd	sp,-376(gp) # 0x40001e88
     49c:	db314193          	xori	gp,sp,-589
     4a0:	59716093          	ori	ra,sp,1431
     4a4:	f7006293          	ori	t0,zero,-144
     4a8:	24c5f137          	lui	sp,0x24c5f
     4ac:	5ce440b7          	lui	ra,0x5ce44
     4b0:	0c4342b7          	lui	t0,0xc434
     4b4:	03817093          	andi	ra,sp,56
     4b8:	88f5f1b7          	lui	gp,0x88f5f
     4bc:	acc973b7          	lui	t2,0xacc97
     4c0:	c5014113          	xori	sp,sp,-944
     4c4:	00618263          	beq	gp,t1,0x4c8
     4c8:	1dd000ef          	jal	ra,0xea4
     4cc:	4aa36113          	ori	sp,t1,1194
     4d0:	6c6e5037          	lui	zero,0x6c6e5
     4d4:	b750e0b7          	lui	ra,0xb750e
     4d8:	dbbd6137          	lui	sp,0xdbbd6
     4dc:	b3cf6137          	lui	sp,0xb3cf6
     4e0:	d981c393          	xori	t2,gp,-616
     4e4:	3f10e093          	ori	ra,ra,1009
     4e8:	c6adb1b7          	lui	gp,0xc6adb
     4ec:	400020b7          	lui	ra,0x40002
     4f0:	001080b3          	add	ra,ra,ra
     4f4:	e900b103          	ld	sp,-368(ra) # 0x40001e90
     4f8:	6d5fa1b7          	lui	gp,0x6d5fa
     4fc:	2b0746b7          	lui	a3,0x2b074
     500:	40002137          	lui	sp,0x40002
     504:	00210133          	add	sp,sp,sp
     508:	e9013083          	ld	ra,-368(sp) # 0x40001e90
     50c:	e9d14093          	xori	ra,sp,-355
     510:	400020b7          	lui	ra,0x40002
     514:	001080b3          	add	ra,ra,ra
     518:	e900b083          	ld	ra,-368(ra) # 0x40001e90
     51c:	400020b7          	lui	ra,0x40002
     520:	001080b3          	add	ra,ra,ra
     524:	e880b183          	ld	gp,-376(ra) # 0x40001e88
     528:	0e306193          	ori	gp,zero,227
     52c:	7f1fb137          	lui	sp,0x7f1fb
     530:	81d14137          	lui	sp,0x81d14
     534:	24917193          	andi	gp,sp,585
     538:	97f16213          	ori	tp,sp,-1665
     53c:	51c680b7          	lui	ra,0x51c68
     540:	7ca16093          	ori	ra,sp,1994
     544:	4e707137          	lui	sp,0x4e707
     548:	01926193          	ori	gp,tp,25
     54c:	00018313          	mv	t1,gp
     550:	b43300e3          	beq	t1,gp,0x90
     554:	22d56137          	lui	sp,0x22d56
     558:	c864c0b7          	lui	ra,0xc864c
     55c:	20027613          	andi	a2,tp,512
     560:	fff38213          	addi	tp,t2,-1 # 0xffffffffacc96fff
     564:	dc954137          	lui	sp,0xdc954
     568:	ca366037          	lui	zero,0xca366
     56c:	d43e40b7          	lui	ra,0xd43e4
     570:	a8718293          	addi	t0,gp,-1401 # 0x6d5f9a87
     574:	23d0f193          	andi	gp,ra,573
     578:	44714093          	xori	ra,sp,1095
     57c:	7da10093          	addi	ra,sp,2010 # 0xffffffffdc9547da
     580:	f7b36093          	ori	ra,t1,-133
     584:	3f514713          	xori	a4,sp,1013
     588:	7c5a80b7          	lui	ra,0x7c5a8
     58c:	80f14113          	xori	sp,sp,-2033
     590:	67c383b7          	lui	t2,0x67c38
     594:	29c18093          	addi	ra,gp,668
     598:	30b10113          	addi	sp,sp,779
     59c:	ce42c137          	lui	sp,0xce42c
     5a0:	21810113          	addi	sp,sp,536 # 0xffffffffce42c218
     5a4:	6a738093          	addi	ra,t2,1703 # 0x67c386a7
     5a8:	a3b0ec93          	ori	s9,ra,-1477
     5ac:	2d702237          	lui	tp,0x2d702
     5b0:	21e0c193          	xori	gp,ra,542
     5b4:	7b0a4113          	xori	sp,s4,1968
     5b8:	447ce137          	lui	sp,0x447ce
     5bc:	de9880b7          	lui	ra,0xde988
     5c0:	e0a14193          	xori	gp,sp,-502
     5c4:	3a51c093          	xori	ra,gp,933
     5c8:	400021b7          	lui	gp,0x40002
     5cc:	003181b3          	add	gp,gp,gp
     5d0:	e821b823          	sd	sp,-368(gp) # 0x40001e90
     5d4:	769340b7          	lui	ra,0x76934
     5d8:	a4bae337          	lui	t1,0xa4bae
     5dc:	51728593          	addi	a1,t0,1303 # 0xc434517
     5e0:	00008093          	mv	ra,ra
     5e4:	34108063          	beq	ra,ra,0x924
     5e8:	400021b7          	lui	gp,0x40002
     5ec:	003181b3          	add	gp,gp,gp
     5f0:	e8b1b423          	sd	a1,-376(gp) # 0x40001e88
     5f4:	05c0e213          	ori	tp,ra,92
     5f8:	cc7820b7          	lui	ra,0xcc782
     5fc:	2290fd13          	andi	s10,ra,553
     600:	fe2240b7          	lui	ra,0xfe224
     604:	4f775b37          	lui	s6,0x4f775
     608:	74a1e093          	ori	ra,gp,1866
     60c:	400023b7          	lui	t2,0x40002
     610:	007383b3          	add	t2,t2,t2
     614:	e903b103          	ld	sp,-368(t2) # 0x40001e90
     618:	56b0c193          	xori	gp,ra,1387
     61c:	514214b7          	lui	s1,0x51421
     620:	c5128137          	lui	sp,0xc5128
     624:	7fd490b7          	lui	ra,0x7fd49
     628:	2c6b9837          	lui	a6,0x2c6b9
     62c:	2d01c113          	xori	sp,gp,720
     630:	400022b7          	lui	t0,0x40002
     634:	005282b3          	add	t0,t0,t0
     638:	e882b183          	ld	gp,-376(t0) # 0x40001e88
     63c:	63b4f293          	andi	t0,s1,1595
     640:	12acd0b7          	lui	ra,0x12acd
     644:	89b0f113          	andi	sp,ra,-1893
     648:	40002237          	lui	tp,0x40002
     64c:	00420233          	add	tp,tp,tp
     650:	e9023183          	ld	gp,-368(tp) # 0x40001e90
     654:	06618393          	addi	t2,gp,102
     658:	c82430b7          	lui	ra,0xc8243
     65c:	f7d14093          	xori	ra,sp,-131
     660:	8bd3e113          	ori	sp,t2,-1859
     664:	b5d17193          	andi	gp,sp,-1187
     668:	d7d16213          	ori	tp,sp,-643
     66c:	27669137          	lui	sp,0x27669
     670:	a7f18213          	addi	tp,gp,-1409
     674:	25810113          	addi	sp,sp,600 # 0x27669258
     678:	b6b200b7          	lui	ra,0xb6b20
     67c:	00010193          	mv	gp,sp
     680:	20218863          	beq	gp,sp,0x890
     684:	93ca8037          	lui	zero,0x93ca8
     688:	01f4b0b7          	lui	ra,0x1f4b
     68c:	f079e0b7          	lui	ra,0xf079e
     690:	ebef90b7          	lui	ra,0xebef9
     694:	e8f171b7          	lui	gp,0xe8f17
     698:	b0c411b7          	lui	gp,0xb0c41
     69c:	40002137          	lui	sp,0x40002
     6a0:	00210133          	add	sp,sp,sp
     6a4:	e8813083          	ld	ra,-376(sp) # 0x40001e88
     6a8:	c6f9f237          	lui	tp,0xc6f9f
     6ac:	693a30b7          	lui	ra,0x693a3
     6b0:	52608193          	addi	gp,ra,1318 # 0x693a3526
     6b4:	efc40137          	lui	sp,0xefc40
     6b8:	33f10093          	addi	ra,sp,831 # 0xffffffffefc4033f
     6bc:	2ca10393          	addi	t2,sp,714
     6c0:	400021b7          	lui	gp,0x40002
     6c4:	003181b3          	add	gp,gp,gp
     6c8:	e821b823          	sd	sp,-368(gp) # 0x40001e90
     6cc:	400024b7          	lui	s1,0x40002
     6d0:	009484b3          	add	s1,s1,s1
     6d4:	e884b183          	ld	gp,-376(s1) # 0x40001e88
     6d8:	ebde91b7          	lui	gp,0xebde9
     6dc:	60ba40b7          	lui	ra,0x60ba4
     6e0:	ee1b10b7          	lui	ra,0xee1b1
     6e4:	c8a5c137          	lui	sp,0xc8a5c
     6e8:	6701f0b7          	lui	ra,0x6701f
     6ec:	1321e113          	ori	sp,gp,306
     6f0:	ba2188e3          	beq	gp,sp,0x2a0
     6f4:	badff16f          	jal	sp,0x2a0
     6f8:	1c214313          	xori	t1,sp,450
     6fc:	40002337          	lui	t1,0x40002
     700:	00630333          	add	t1,t1,t1
     704:	e8333823          	sd	gp,-368(t1) # 0x40001e90
     708:	da6201b7          	lui	gp,0xda620
     70c:	614230b7          	lui	ra,0x61423
     710:	c4246137          	lui	sp,0xc4246
     714:	8d518113          	addi	sp,gp,-1835 # 0xffffffffda61f8d5
     718:	400020b7          	lui	ra,0x40002
     71c:	001080b3          	add	ra,ra,ra
     720:	e880b103          	ld	sp,-376(ra) # 0x40001e88
     724:	fb5590b7          	lui	ra,0xfb559
     728:	0c008137          	lui	sp,0xc008
     72c:	bd91e093          	ori	ra,gp,-1063
     730:	400020b7          	lui	ra,0x40002
     734:	001080b3          	add	ra,ra,ra
     738:	e880b283          	ld	t0,-376(ra) # 0x40001e88
     73c:	89f5e293          	ori	t0,a1,-1889
     740:	e111c093          	xori	ra,gp,-495
     744:	2550c193          	xori	gp,ra,597
     748:	660551b7          	lui	gp,0x66055
     74c:	27d0f113          	andi	sp,ra,637
     750:	1cafd337          	lui	t1,0x1cafd
     754:	9f424093          	xori	ra,tp,-1548
     758:	08e4e037          	lui	zero,0x8e4e
     75c:	ddda66b7          	lui	a3,0xddda6
     760:	fb6360b7          	lui	ra,0xfb636
     764:	1f4211b7          	lui	gp,0x1f421
     768:	00008213          	mv	tp,ra
     76c:	aa1208e3          	beq	tp,ra,0x21c
     770:	40002137          	lui	sp,0x40002
     774:	00210133          	add	sp,sp,sp
     778:	e9013283          	ld	t0,-368(sp) # 0x40001e90
     77c:	1b7b70b7          	lui	ra,0x1b7b7
     780:	885025b7          	lui	a1,0x88502
     784:	73c14093          	xori	ra,sp,1852
     788:	5a80f113          	andi	sp,ra,1448
     78c:	6a6862b7          	lui	t0,0x6a686
     790:	ee36e1b7          	lui	gp,0xee36e
     794:	0939e0b7          	lui	ra,0x939e
     798:	400020b7          	lui	ra,0x40002
     79c:	001080b3          	add	ra,ra,ra
     7a0:	e900b103          	ld	sp,-368(ra) # 0x40001e90
     7a4:	97b30293          	addi	t0,t1,-1669 # 0x1cafc97b
     7a8:	c7bdc093          	xori	ra,s11,-901
     7ac:	90e1f293          	andi	t0,gp,-1778
     7b0:	41d9a2b7          	lui	t0,0x41d9a
     7b4:	400021b7          	lui	gp,0x40002
     7b8:	003181b3          	add	gp,gp,gp
     7bc:	e831b823          	sd	gp,-368(gp) # 0x40001e90
     7c0:	40002237          	lui	tp,0x40002
     7c4:	00420233          	add	tp,tp,tp
     7c8:	e9023003          	ld	zero,-368(tp) # 0x40001e90
     7cc:	f64c51b7          	lui	gp,0xf64c5
     7d0:	322bd6b7          	lui	a3,0x322bd
     7d4:	c42b90b7          	lui	ra,0xc42b9
     7d8:	0c0b6137          	lui	sp,0xc0b6
     7dc:	88447137          	lui	sp,0x88447
     7e0:	0b3021b7          	lui	gp,0xb302
     7e4:	0b9571b7          	lui	gp,0xb957
     7e8:	2780e193          	ori	gp,ra,632
     7ec:	b660c093          	xori	ra,ra,-1178
     7f0:	dde0f113          	andi	sp,ra,-546
     7f4:	00010113          	mv	sp,sp
     7f8:	e82106e3          	beq	sp,sp,0x684
     7fc:	500812b7          	lui	t0,0x50081
     800:	4dd1e793          	ori	a5,gp,1245
     804:	59c0c193          	xori	gp,ra,1436
     808:	ec1f6037          	lui	zero,0xec1f6
     80c:	00ab01b7          	lui	gp,0xab0
     810:	e315f137          	lui	sp,0xe315f
     814:	bc71f093          	andi	ra,gp,-1081
     818:	80c94093          	xori	ra,s2,-2036
     81c:	8bb1c193          	xori	gp,gp,-1861
     820:	400021b7          	lui	gp,0x40002
     824:	003181b3          	add	gp,gp,gp
     828:	e901b383          	ld	t2,-368(gp) # 0x40001e90
     82c:	9850c113          	xori	sp,ra,-1659
     830:	400020b7          	lui	ra,0x40002
     834:	001080b3          	add	ra,ra,ra
     838:	e880b183          	ld	gp,-376(ra) # 0x40001e88
     83c:	b9b14693          	xori	a3,sp,-1125
     840:	fe03f1b7          	lui	gp,0xfe03f
     844:	40002137          	lui	sp,0x40002
     848:	00210133          	add	sp,sp,sp
     84c:	e9013083          	ld	ra,-368(sp) # 0x40001e90
     850:	26bac013          	xori	zero,s5,619
     854:	400022b7          	lui	t0,0x40002
     858:	005282b3          	add	t0,t0,t0
     85c:	e902b183          	ld	gp,-368(t0) # 0x40001e90
     860:	48f30093          	addi	ra,t1,1167
     864:	bba82137          	lui	sp,0xbba82
     868:	6e2560b7          	lui	ra,0x6e256
     86c:	40002137          	lui	sp,0x40002
     870:	00210133          	add	sp,sp,sp
     874:	e8413423          	sd	tp,-376(sp) # 0x40001e88
     878:	966ba0b7          	lui	ra,0x966ba
     87c:	095dd137          	lui	sp,0x95dd
     880:	e966d037          	lui	zero,0xe966d
     884:	6572fab7          	lui	s5,0x6572f
     888:	aa3082e3          	beq	ra,gp,0x32c
     88c:	aa1ff16f          	jal	sp,0x32c
     890:	400021b7          	lui	gp,0x40002
     894:	003181b3          	add	gp,gp,gp
     898:	e881b083          	ld	ra,-376(gp) # 0x40001e88
     89c:	89837137          	lui	sp,0x89837
     8a0:	df308313          	addi	t1,ra,-525 # 0xffffffff966b9df3
     8a4:	2311e193          	ori	gp,gp,561
     8a8:	48e2c093          	xori	ra,t0,1166
     8ac:	2bd4f313          	andi	t1,s1,701
     8b0:	40002ab7          	lui	s5,0x40002
     8b4:	015a8ab3          	add	s5,s5,s5
     8b8:	e90ab203          	ld	tp,-368(s5) # 0x40001e90
     8bc:	40002f37          	lui	t5,0x40002
     8c0:	01ef0f33          	add	t5,t5,t5
     8c4:	e88f3103          	ld	sp,-376(t5) # 0x40001e88
     8c8:	400020b7          	lui	ra,0x40002
     8cc:	001080b3          	add	ra,ra,ra
     8d0:	e900b183          	ld	gp,-368(ra) # 0x40001e90
     8d4:	ce4df093          	andi	ra,s11,-796
     8d8:	400020b7          	lui	ra,0x40002
     8dc:	001080b3          	add	ra,ra,ra
     8e0:	e900b183          	ld	gp,-368(ra) # 0x40001e90
     8e4:	74de6037          	lui	zero,0x74de6
     8e8:	964e70b7          	lui	ra,0x964e7
     8ec:	40002137          	lui	sp,0x40002
     8f0:	00210133          	add	sp,sp,sp
     8f4:	e9013103          	ld	sp,-368(sp) # 0x40001e90
     8f8:	83ebd1b7          	lui	gp,0x83ebd
     8fc:	bf85b2b7          	lui	t0,0xbf85b
     900:	1e814113          	xori	sp,sp,488
     904:	de51f113          	andi	sp,gp,-539
     908:	b431f1b7          	lui	gp,0xb431f
     90c:	13a06193          	ori	gp,zero,314
     910:	400020b7          	lui	ra,0x40002
     914:	001080b3          	add	ra,ra,ra
     918:	e820b823          	sd	sp,-368(ra) # 0x40001e90
     91c:	00018093          	mv	ra,gp
     920:	e43088e3          	beq	ra,gp,0x770
     924:	bc79d037          	lui	zero,0xbc79d
     928:	2fc10293          	addi	t0,sp,764
     92c:	a0ece0b7          	lui	ra,0xa0ece
     930:	07c17137          	lui	sp,0x7c17
     934:	b550f093          	andi	ra,ra,-1195
     938:	ef116193          	ori	gp,sp,-271
     93c:	f11645b7          	lui	a1,0xf1164
     940:	c0bfe093          	ori	ra,t6,-1013
     944:	f6bed0b7          	lui	ra,0xf6bed
     948:	400021b7          	lui	gp,0x40002
     94c:	003181b3          	add	gp,gp,gp
     950:	e801b423          	sd	zero,-376(gp) # 0x40001e88
     954:	7c1e8337          	lui	t1,0x7c1e8
     958:	38516037          	lui	zero,0x38516
     95c:	0fa06113          	ori	sp,zero,250
     960:	40002137          	lui	sp,0x40002
     964:	00210133          	add	sp,sp,sp
     968:	e8813003          	ld	zero,-376(sp) # 0x40001e88
     96c:	e5c491b7          	lui	gp,0xe5c49
     970:	7b707113          	andi	sp,zero,1975
     974:	60eb2237          	lui	tp,0x60eb2
     978:	15f14093          	xori	ra,sp,351
     97c:	976611b7          	lui	gp,0x97661
     980:	68333137          	lui	sp,0x68333
     984:	613e4013          	xori	zero,t3,1555
     988:	0c5f2e37          	lui	t3,0xc5f2
     98c:	00a00013          	li	zero,10
     990:	9b0d9137          	lui	sp,0x9b0d9
     994:	1181f113          	andi	sp,gp,280
     998:	b62c01b7          	lui	gp,0xb62c0
     99c:	5f72c113          	xori	sp,t0,1527
     9a0:	13bff0b7          	lui	ra,0x13bff
     9a4:	00018093          	mv	ra,gp
     9a8:	a8308ce3          	beq	ra,gp,0x440
     9ac:	81017193          	andi	gp,sp,-2032
     9b0:	7d1831b7          	lui	gp,0x7d183
     9b4:	21d00193          	li	gp,541
     9b8:	989040b7          	lui	ra,0x98904
     9bc:	9be941b7          	lui	gp,0x9be94
     9c0:	05018193          	addi	gp,gp,80 # 0xffffffff9be94050
     9c4:	07ffc237          	lui	tp,0x7ffc
     9c8:	95d4c2b7          	lui	t0,0x95d4c
     9cc:	400023b7          	lui	t2,0x40002
     9d0:	007383b3          	add	t2,t2,t2
     9d4:	e863b823          	sd	t1,-368(t2) # 0x40001e90
     9d8:	acb70137          	lui	sp,0xacb70
     9dc:	b7e17093          	andi	ra,sp,-1154
     9e0:	f510c893          	xori	a7,ra,-175
     9e4:	14910113          	addi	sp,sp,329 # 0xffffffffacb70149
     9e8:	49f1f093          	andi	ra,gp,1183
     9ec:	41ba51b7          	lui	gp,0x41ba5
     9f0:	d1c9b7b7          	lui	a5,0xd1c9b
     9f4:	aefad137          	lui	sp,0xaefad
     9f8:	eb80f137          	lui	sp,0xeb80f
     9fc:	400021b7          	lui	gp,0x40002
     a00:	003181b3          	add	gp,gp,gp
     a04:	e831b823          	sd	gp,-368(gp) # 0x40001e90
     a08:	27f08137          	lui	sp,0x27f08
     a0c:	0738d1b7          	lui	gp,0x738d
     a10:	90a17113          	andi	sp,sp,-1782
     a14:	b99cb337          	lui	t1,0xb99cb
     a18:	bfdd8137          	lui	sp,0xbfdd8
     a1c:	c4f2e113          	ori	sp,t0,-945
     a20:	40002137          	lui	sp,0x40002
     a24:	00210133          	add	sp,sp,sp
     a28:	e9013103          	ld	sp,-368(sp) # 0x40001e90
     a2c:	530840b7          	lui	ra,0x53084
     a30:	63cfb137          	lui	sp,0x63cfb
     a34:	00018193          	mv	gp,gp
     a38:	b0318ee3          	beq	gp,gp,0x554
     a3c:	a121f213          	andi	tp,gp,-1518
     a40:	400021b7          	lui	gp,0x40002
     a44:	003181b3          	add	gp,gp,gp
     a48:	e881b103          	ld	sp,-376(gp) # 0x40001e88
     a4c:	41cf91b7          	lui	gp,0x41cf9
     a50:	c6819137          	lui	sp,0xc6819
     a54:	f8d0c793          	xori	a5,ra,-115
     a58:	3cff60b7          	lui	ra,0x3cff6
     a5c:	54b3f2b7          	lui	t0,0x54b3f
     a60:	3fe04093          	xori	ra,zero,1022
     a64:	fde96337          	lui	t1,0xfde96
     a68:	9921f193          	andi	gp,gp,-1646
     a6c:	3b68b5b7          	lui	a1,0x3b68b
     a70:	400020b7          	lui	ra,0x40002
     a74:	001080b3          	add	ra,ra,ra
     a78:	e810b423          	sd	ra,-376(ra) # 0x40001e88
     a7c:	2a818313          	addi	t1,gp,680 # 0x41cf92a8
     a80:	bae10c93          	addi	s9,sp,-1106 # 0xffffffffc6818bae
     a84:	027b6137          	lui	sp,0x27b6
     a88:	400020b7          	lui	ra,0x40002
     a8c:	001080b3          	add	ra,ra,ra
     a90:	e900b083          	ld	ra,-368(ra) # 0x40001e90
     a94:	676fe1b7          	lui	gp,0x676fe
     a98:	3f90c137          	lui	sp,0x3f90c
     a9c:	b4c9e237          	lui	tp,0xb4c9e
     aa0:	abc18113          	addi	sp,gp,-1348 # 0x676fdabc
     aa4:	683c40b7          	lui	ra,0x683c4
     aa8:	2b8e6113          	ori	sp,t3,696
     aac:	2b30c113          	xori	sp,ra,691
     ab0:	219d6037          	lui	zero,0x219d6
     ab4:	42c75037          	lui	zero,0x42c75
     ab8:	1137c137          	lui	sp,0x1137c
     abc:	858a7193          	andi	gp,s4,-1960
     ac0:	00118263          	beq	gp,ra,0xac4
     ac4:	ed0ff1ef          	jal	gp,0x194
     ac8:	589dd1b7          	lui	gp,0x589dd
     acc:	b786b1b7          	lui	gp,0xb786b
     ad0:	f54cf437          	lui	s0,0xf54cf
     ad4:	7f78b137          	lui	sp,0x7f78b
     ad8:	e993b437          	lui	s0,0xe993b
     adc:	70f6a137          	lui	sp,0x70f6a
     ae0:	bcc10693          	addi	a3,sp,-1076 # 0x70f69bcc
     ae4:	122561b7          	lui	gp,0x12256
     ae8:	fc680137          	lui	sp,0xfc680
     aec:	f2818193          	addi	gp,gp,-216 # 0x12255f28
     af0:	ff118093          	addi	ra,gp,-15
     af4:	4fe14093          	xori	ra,sp,1278
     af8:	8fa08013          	addi	zero,ra,-1798 # 0x683c38fa
     afc:	40002337          	lui	t1,0x40002
     b00:	00630333          	add	t1,t1,t1
     b04:	e9033103          	ld	sp,-368(t1) # 0x40001e90
     b08:	4bb4e1b7          	lui	gp,0x4bb4e
     b0c:	71ad4137          	lui	sp,0x71ad4
     b10:	400021b7          	lui	gp,0x40002
     b14:	003181b3          	add	gp,gp,gp
     b18:	e881b283          	ld	t0,-376(gp) # 0x40001e88
     b1c:	20dcb2b7          	lui	t0,0x20dcb
     b20:	be95f0b7          	lui	ra,0xbe95f
     b24:	fb208113          	addi	sp,ra,-78 # 0xffffffffbe95efb2
     b28:	e62301b7          	lui	gp,0xe6230
     b2c:	dfa2c193          	xori	gp,t0,-518
     b30:	b55fd037          	lui	zero,0xb55fd
     b34:	400022b7          	lui	t0,0x40002
     b38:	005282b3          	add	t0,t0,t0
     b3c:	e832b423          	sd	gp,-376(t0) # 0x40001e88
     b40:	ab5184e3          	beq	gp,s5,0x5e8
     b44:	aa5ff1ef          	jal	gp,0x5e8
     b48:	98317113          	andi	sp,sp,-1661
     b4c:	af503137          	lui	sp,0xaf503
     b50:	40002f37          	lui	t5,0x40002
     b54:	01ef0f33          	add	t5,t5,t5
     b58:	e90f3203          	ld	tp,-368(t5) # 0x40001e90
     b5c:	400021b7          	lui	gp,0x40002
     b60:	003181b3          	add	gp,gp,gp
     b64:	e811b823          	sd	ra,-368(gp) # 0x40001e90
     b68:	b0b3c193          	xori	gp,t2,-1269
     b6c:	400027b7          	lui	a5,0x40002
     b70:	00f787b3          	add	a5,a5,a5
     b74:	e887b303          	ld	t1,-376(a5) # 0x40001e88
     b78:	75be02b7          	lui	t0,0x75be0
     b7c:	79c10693          	addi	a3,sp,1948 # 0xffffffffaf50379c
     b80:	f6178237          	lui	tp,0xf6178
     b84:	400022b7          	lui	t0,0x40002
     b88:	005282b3          	add	t0,t0,t0
     b8c:	e902b103          	ld	sp,-368(t0) # 0x40001e90
     b90:	b41950b7          	lui	ra,0xb4195
     b94:	c3930137          	lui	sp,0xc3930
     b98:	7270f137          	lui	sp,0x7270f
     b9c:	1ffd4237          	lui	tp,0x1ffd4
     ba0:	501341b7          	lui	gp,0x50134
     ba4:	aab10313          	addi	t1,sp,-1365 # 0x7270eaab
     ba8:	9d814313          	xori	t1,sp,-1576
     bac:	ec71f393          	andi	t2,gp,-313
     bb0:	400020b7          	lui	ra,0x40002
     bb4:	001080b3          	add	ra,ra,ra
     bb8:	e800b423          	sd	zero,-376(ra) # 0x40001e88
     bbc:	1fecc1b7          	lui	gp,0x1fecc
     bc0:	b0f18093          	addi	ra,gp,-1265 # 0x1fecbb0f
     bc4:	03317193          	andi	gp,sp,51
     bc8:	67618093          	addi	ra,gp,1654
     bcc:	3681e193          	ori	gp,gp,872
     bd0:	10218663          	beq	gp,sp,0xcdc
     bd4:	1080016f          	jal	sp,0xcdc
     bd8:	0b41c193          	xori	gp,gp,180
     bdc:	400021b7          	lui	gp,0x40002
     be0:	003181b3          	add	gp,gp,gp
     be4:	e831b823          	sd	gp,-368(gp) # 0x40001e90
     be8:	01465137          	lui	sp,0x1465
     bec:	398f41b7          	lui	gp,0x398f4
     bf0:	aeda60b7          	lui	ra,0xaeda6
     bf4:	8d60c113          	xori	sp,ra,-1834
     bf8:	1f67a0b7          	lui	ra,0x1f67a
     bfc:	5efce1b7          	lui	gp,0x5efce
     c00:	40002237          	lui	tp,0x40002
     c04:	00420233          	add	tp,tp,tp
     c08:	e9023183          	ld	gp,-368(tp) # 0x40001e90
     c0c:	5a000313          	li	t1,1440
     c10:	d62061b7          	lui	gp,0xd6206
     c14:	97414093          	xori	ra,sp,-1676
     c18:	89a1f1b7          	lui	gp,0x89a1f
     c1c:	0240c113          	xori	sp,ra,36
     c20:	2b7830b7          	lui	ra,0x2b783
     c24:	70dd51b7          	lui	gp,0x70dd5
     c28:	5340e393          	ori	t2,ra,1332
     c2c:	0430f113          	andi	sp,ra,67
     c30:	53165137          	lui	sp,0x53165
     c34:	03108113          	addi	sp,ra,49 # 0x2b783031
     c38:	1d406093          	ori	ra,zero,468
     c3c:	50114193          	xori	gp,sp,1281
     c40:	ed610093          	addi	ra,sp,-298 # 0x53164ed6
     c44:	dd0fe1b7          	lui	gp,0xdd0fe
     c48:	400021b7          	lui	gp,0x40002
     c4c:	003181b3          	add	gp,gp,gp
     c50:	e811b423          	sd	ra,-376(gp) # 0x40001e88
     c54:	7f3171b7          	lui	gp,0x7f317
     c58:	00008293          	mv	t0,ra
     c5c:	40128063          	beq	t0,ra,0x105c
     c60:	dca0e113          	ori	sp,ra,-566
     c64:	87d1cb93          	xori	s7,gp,-1923
     c68:	40002137          	lui	sp,0x40002
     c6c:	00210133          	add	sp,sp,sp
     c70:	e8213823          	sd	sp,-368(sp) # 0x40001e90
     c74:	f25fb037          	lui	zero,0xf25fb
     c78:	7e20e113          	ori	sp,ra,2018
     c7c:	48310113          	addi	sp,sp,1155
     c80:	77738013          	addi	zero,t2,1911
     c84:	fed14093          	xori	ra,sp,-19
     c88:	ac7e2fb7          	lui	t6,0xac7e2
     c8c:	40002137          	lui	sp,0x40002
     c90:	00210133          	add	sp,sp,sp
     c94:	e8813103          	ld	sp,-376(sp) # 0x40001e88
     c98:	50370137          	lui	sp,0x50370
     c9c:	40002f37          	lui	t5,0x40002
     ca0:	01ef0f33          	add	t5,t5,t5
     ca4:	e90f3f03          	ld	t5,-368(t5) # 0x40001e90
     ca8:	400022b7          	lui	t0,0x40002
     cac:	005282b3          	add	t0,t0,t0
     cb0:	e882b003          	ld	zero,-376(t0) # 0x40001e88
     cb4:	6e6a0137          	lui	sp,0x6e6a0
     cb8:	3c2ae0b7          	lui	ra,0x3c2ae
     cbc:	92d17113          	andi	sp,sp,-1747
     cc0:	55b08293          	addi	t0,ra,1371 # 0x3c2ae55b
     cc4:	31216113          	ori	sp,sp,786
     cc8:	20416113          	ori	sp,sp,516
     ccc:	8a106113          	ori	sp,zero,-1887
     cd0:	45f8e1b7          	lui	gp,0x45f8e
     cd4:	00308263          	beq	ra,gp,0xcd8
     cd8:	089003ef          	jal	t2,0x1560
     cdc:	704990b7          	lui	ra,0x70499
     ce0:	da916093          	ori	ra,sp,-599
     ce4:	035f10b7          	lui	ra,0x35f1
     ce8:	a3017137          	lui	sp,0xa3017
     cec:	400020b7          	lui	ra,0x40002
     cf0:	001080b3          	add	ra,ra,ra
     cf4:	e880b083          	ld	ra,-376(ra) # 0x40001e88
     cf8:	f04051b7          	lui	gp,0xf0405
     cfc:	9ada41b7          	lui	gp,0x9ada4
     d00:	f0415137          	lui	sp,0xf0415
     d04:	cfe0f113          	andi	sp,ra,-770
     d08:	3802c093          	xori	ra,t0,896
     d0c:	15c1f0b7          	lui	ra,0x15c1f
     d10:	25f20293          	addi	t0,tp,607 # 0x25f
     d14:	f4817093          	andi	ra,sp,-184
     d18:	40c78193          	addi	gp,a5,1036
     d1c:	d2014393          	xori	t2,sp,-736
     d20:	fc50c113          	xori	sp,ra,-59
     d24:	4870e393          	ori	t2,ra,1159
     d28:	400021b7          	lui	gp,0x40002
     d2c:	003181b3          	add	gp,gp,gp
     d30:	e901b203          	ld	tp,-368(gp) # 0x40001e90
     d34:	7ed181b7          	lui	gp,0x7ed18
     d38:	f96310b7          	lui	ra,0xf9631
     d3c:	14106193          	ori	gp,zero,321
     d40:	cd79f1b7          	lui	gp,0xcd79f
     d44:	7e634093          	xori	ra,t1,2022
     d48:	9561f193          	andi	gp,gp,-1706
     d4c:	8167f237          	lui	tp,0x8167f
     d50:	886dc0b7          	lui	ra,0x886dc
     d54:	36314193          	xori	gp,sp,867
     d58:	9f57f137          	lui	sp,0x9f57f
     d5c:	5e428137          	lui	sp,0x5e428
     d60:	d6426213          	ori	tp,tp,-668
     d64:	46010193          	addi	gp,sp,1120 # 0x5e428460
     d68:	24218c63          	beq	gp,sp,0xfc0
     d6c:	2540016f          	jal	sp,0xfc0
     d70:	b593e193          	ori	gp,t2,-1191
     d74:	71f10393          	addi	t2,sp,1823
     d78:	11fac137          	lui	sp,0x11fac
     d7c:	bcad21b7          	lui	gp,0xbcad2
     d80:	5403f293          	andi	t0,t2,1344
     d84:	f83f5337          	lui	t1,0xf83f5
     d88:	0f117313          	andi	t1,sp,241
     d8c:	a6e3c193          	xori	gp,t2,-1426
     d90:	b0964137          	lui	sp,0xb0964
     d94:	db434093          	xori	ra,t1,-588
     d98:	2fa210b7          	lui	ra,0x2fa21
     d9c:	0ffb6137          	lui	sp,0xffb6
     da0:	b9da01b7          	lui	gp,0xb9da0
     da4:	da3c8137          	lui	sp,0xda3c8
     da8:	7ff16193          	ori	gp,sp,2047
     dac:	a4804193          	xori	gp,zero,-1464
     db0:	37108113          	addi	sp,ra,881 # 0x2fa21371
     db4:	15f0b137          	lui	sp,0x15f0b
     db8:	d641c093          	xori	ra,gp,-668
     dbc:	7b37c0b7          	lui	ra,0x7b37c
     dc0:	5b32f113          	andi	sp,t0,1459
     dc4:	90f14113          	xori	sp,sp,-1777
     dc8:	8b313137          	lui	sp,0x8b313
     dcc:	fa818293          	addi	t0,gp,-88 # 0xffffffffb9d9ffa8
     dd0:	ea5a61b7          	lui	gp,0xea5a6
     dd4:	e3924093          	xori	ra,tp,-455
     dd8:	ec616093          	ori	ra,sp,-314
     ddc:	edd18213          	addi	tp,gp,-291 # 0xffffffffea5a5edd
     de0:	7ce08193          	addi	gp,ra,1998 # 0x7b37c7ce
     de4:	b1718093          	addi	ra,gp,-1257
     de8:	400020b7          	lui	ra,0x40002
     dec:	001080b3          	add	ra,ra,ra
     df0:	e810b423          	sd	ra,-376(ra) # 0x40001e88
     df4:	49e40193          	addi	gp,s0,1182 # 0xffffffffe993b49e
     df8:	400020b7          	lui	ra,0x40002
     dfc:	001080b3          	add	ra,ra,ra
     e00:	e810b823          	sd	ra,-368(ra) # 0x40001e90
     e04:	f6ef2137          	lui	sp,0xf6ef2
     e08:	e9c5f0b7          	lui	ra,0xe9c5f
     e0c:	eb91e113          	ori	sp,gp,-327
     e10:	00010193          	mv	gp,sp
     e14:	00218263          	beq	gp,sp,0xe18
     e18:	b520f013          	andi	zero,ra,-1198
     e1c:	8d830193          	addi	gp,t1,-1832 # 0xfffffffff83f48d8
     e20:	3a40b137          	lui	sp,0x3a40b
     e24:	40002337          	lui	t1,0x40002
     e28:	00630333          	add	t1,t1,t1
     e2c:	e8633423          	sd	t1,-376(t1) # 0x40001e88
     e30:	d688f1b7          	lui	gp,0xd688f
     e34:	baa96193          	ori	gp,s2,-1110
     e38:	2b60e093          	ori	ra,ra,694
     e3c:	dd85e1b7          	lui	gp,0xdd85e
     e40:	400021b7          	lui	gp,0x40002
     e44:	003181b3          	add	gp,gp,gp
     e48:	e901b283          	ld	t0,-368(gp) # 0x40001e90
     e4c:	ab126013          	ori	zero,tp,-1359
     e50:	400021b7          	lui	gp,0x40002
     e54:	003181b3          	add	gp,gp,gp
     e58:	e881b303          	ld	t1,-376(gp) # 0x40001e88
     e5c:	400021b7          	lui	gp,0x40002
     e60:	003181b3          	add	gp,gp,gp
     e64:	e901b183          	ld	gp,-368(gp) # 0x40001e90
     e68:	2db16113          	ori	sp,sp,731
     e6c:	400023b7          	lui	t2,0x40002
     e70:	007383b3          	add	t2,t2,t2
     e74:	e883b103          	ld	sp,-376(t2) # 0x40001e88
     e78:	b2bdf1b7          	lui	gp,0xb2bdf
     e7c:	c59bd237          	lui	tp,0xc59bd
     e80:	2562f137          	lui	sp,0x2562f
     e84:	1a00e093          	ori	ra,ra,416
     e88:	e570f113          	andi	sp,ra,-425
     e8c:	e1419037          	lui	zero,0xe1419
     e90:	67cf00b7          	lui	ra,0x67cf0
     e94:	6e41e093          	ori	ra,gp,1764
     e98:	d043b1b7          	lui	gp,0xd043b
     e9c:	2c018863          	beqz	gp,0x116c
     ea0:	2cc001ef          	jal	gp,0x116c
     ea4:	e5a9b0b7          	lui	ra,0xe5a9b
     ea8:	f99852b7          	lui	t0,0xf9985
     eac:	d2e813b7          	lui	t2,0xd2e81
     eb0:	fa2d43b7          	lui	t2,0xfa2d4
     eb4:	dd636137          	lui	sp,0xdd636
     eb8:	62e0f193          	andi	gp,ra,1582
     ebc:	7af0e113          	ori	sp,ra,1967
     ec0:	20d1c213          	xori	tp,gp,525
     ec4:	a8208193          	addi	gp,ra,-1406 # 0xffffffffe5a9aa82
     ec8:	f6526193          	ori	gp,tp,-155
     ecc:	cba1e093          	ori	ra,gp,-838
     ed0:	4bd1e193          	ori	gp,gp,1213
     ed4:	01e1c313          	xori	t1,gp,30
     ed8:	2150e093          	ori	ra,ra,533
     edc:	77cdc4b7          	lui	s1,0x77cdc
     ee0:	2420f1b7          	lui	gp,0x2420f
     ee4:	72b2e1b7          	lui	gp,0x72b2e
     ee8:	400020b7          	lui	ra,0x40002
     eec:	001080b3          	add	ra,ra,ra
     ef0:	e810b423          	sd	ra,-376(ra) # 0x40001e88
     ef4:	400021b7          	lui	gp,0x40002
     ef8:	003181b3          	add	gp,gp,gp
     efc:	e881ba83          	ld	s5,-376(gp) # 0x40001e88
     f00:	ea107293          	andi	t0,zero,-351
     f04:	7b39a2b7          	lui	t0,0x7b39a
     f08:	439181b7          	lui	gp,0x43918
     f0c:	c9c14113          	xori	sp,sp,-868
     f10:	4f6c92b7          	lui	t0,0x4f6c9
     f14:	d0ef81b7          	lui	gp,0xd0ef8
     f18:	0a40f013          	andi	zero,ra,164
     f1c:	00030193          	mv	gp,t1
     f20:	2c618463          	beq	gp,t1,0x11e8
     f24:	400022b7          	lui	t0,0x40002
     f28:	005282b3          	add	t0,t0,t0
     f2c:	e902b303          	ld	t1,-368(t0) # 0x40001e90
     f30:	40002137          	lui	sp,0x40002
     f34:	00210133          	add	sp,sp,sp
     f38:	e8113423          	sd	ra,-376(sp) # 0x40001e88
     f3c:	05840193          	addi	gp,s0,88
     f40:	3cf17193          	andi	gp,sp,975
     f44:	fba841b7          	lui	gp,0xfba84
     f48:	25c72137          	lui	sp,0x25c72
     f4c:	612af337          	lui	t1,0x612af
     f50:	1750c193          	xori	gp,ra,373
     f54:	8e036193          	ori	gp,t1,-1824
     f58:	cf001037          	lui	zero,0xcf001
     f5c:	a141f093          	andi	ra,gp,-1516
     f60:	2f574137          	lui	sp,0x2f574
     f64:	400021b7          	lui	gp,0x40002
     f68:	003181b3          	add	gp,gp,gp
     f6c:	e811b823          	sd	ra,-368(gp) # 0x40001e90
     f70:	8d330013          	addi	zero,t1,-1837 # 0x612ae8d3
     f74:	4051f0b7          	lui	ra,0x4051f
     f78:	9effb137          	lui	sp,0x9effb
     f7c:	40002137          	lui	sp,0x40002
     f80:	00210133          	add	sp,sp,sp
     f84:	e9013083          	ld	ra,-368(sp) # 0x40001e90
     f88:	77028093          	addi	ra,t0,1904
     f8c:	b43ec137          	lui	sp,0xb43ec
     f90:	8c510113          	addi	sp,sp,-1851 # 0xffffffffb43eb8c5
     f94:	fff04113          	not	sp,zero
     f98:	861231b7          	lui	gp,0x86123
     f9c:	b811c337          	lui	t1,0xb811c
     fa0:	da61e193          	ori	gp,gp,-602
     fa4:	fd1361b7          	lui	gp,0xfd136
     fa8:	49d1b1b7          	lui	gp,0x49d1b
     fac:	40002337          	lui	t1,0x40002
     fb0:	00630333          	add	t1,t1,t1
     fb4:	e8733423          	sd	t2,-376(t1) # 0x40001e88
     fb8:	62218c63          	beq	gp,sp,0x15f0
     fbc:	634000ef          	jal	ra,0x15f0
     fc0:	7c60a0b7          	lui	ra,0x7c60a
     fc4:	f53a50b7          	lui	ra,0xf53a5
     fc8:	b894b137          	lui	sp,0xb894b
     fcc:	5f314093          	xori	ra,sp,1523
     fd0:	f72ebd37          	lui	s10,0xf72eb
     fd4:	96e880b7          	lui	ra,0x96e88
     fd8:	38ddd1b7          	lui	gp,0x38ddd
     fdc:	603583b7          	lui	t2,0x60358
     fe0:	ea73f3b7          	lui	t2,0xea73f
     fe4:	f5cfe1b7          	lui	gp,0xf5cfe
     fe8:	400020b7          	lui	ra,0x40002
     fec:	001080b3          	add	ra,ra,ra
     ff0:	e880b303          	ld	t1,-376(ra) # 0x40001e88
     ff4:	45508293          	addi	t0,ra,1109
     ff8:	e37aa2b7          	lui	t0,0xe37aa
     ffc:	754661b7          	lui	gp,0x75466
    1000:	31e1e013          	ori	zero,gp,798
    1004:	0bf0f193          	andi	gp,ra,191
    1008:	003d90b7          	lui	ra,0x3d9
    100c:	dcf1c393          	xori	t2,gp,-561
    1010:	ebe48193          	addi	gp,s1,-322 # 0x77cdbebe
    1014:	34c28213          	addi	tp,t0,844 # 0xffffffffe37aa34c
    1018:	b78f8137          	lui	sp,0xb78f8
    101c:	4b308393          	addi	t2,ra,1203 # 0x3d94b3
    1020:	f5717093          	andi	ra,sp,-169
    1024:	defa9237          	lui	tp,0xdefa9
    1028:	3ae20193          	addi	gp,tp,942 # 0xffffffffdefa93ae
    102c:	400021b7          	lui	gp,0x40002
    1030:	003181b3          	add	gp,gp,gp
    1034:	e871b823          	sd	t2,-368(gp) # 0x40001e90
    1038:	40002137          	lui	sp,0x40002
    103c:	00210133          	add	sp,sp,sp
    1040:	e8313423          	sd	gp,-376(sp) # 0x40001e88
    1044:	709da0b7          	lui	ra,0x709da
    1048:	4e4f8137          	lui	sp,0x4e4f8
    104c:	5f916093          	ori	ra,sp,1529
    1050:	080f2037          	lui	zero,0x80f2
    1054:	08b10863          	beq	sp,a1,0x10e4
    1058:	08c0006f          	j	0x10e4
    105c:	95f233b7          	lui	t2,0x95f23
    1060:	2ce2c093          	xori	ra,t0,718
    1064:	85a16693          	ori	a3,sp,-1958
    1068:	40002137          	lui	sp,0x40002
    106c:	00210133          	add	sp,sp,sp
    1070:	e8813783          	ld	a5,-376(sp) # 0x40001e88
    1074:	400020b7          	lui	ra,0x40002
    1078:	001080b3          	add	ra,ra,ra
    107c:	e880b183          	ld	gp,-376(ra) # 0x40001e88
    1080:	11adb1b7          	lui	gp,0x11adb
    1084:	eb73d137          	lui	sp,0xeb73d
    1088:	11c00f13          	li	t5,284
    108c:	a6fb11b7          	lui	gp,0xa6fb1
    1090:	e65b0113          	addi	sp,s6,-411 # 0x4f774e65
    1094:	2d50f193          	andi	gp,ra,725
    1098:	07404393          	xori	t2,zero,116
    109c:	cd7b21b7          	lui	gp,0xcd7b2
    10a0:	400024b7          	lui	s1,0x40002
    10a4:	009484b3          	add	s1,s1,s1
    10a8:	e884b003          	ld	zero,-376(s1) # 0x40001e88
    10ac:	564df237          	lui	tp,0x564df
    10b0:	94625037          	lui	zero,0x94625
    10b4:	b8bde1b7          	lui	gp,0xb8bde
    10b8:	9c4e4137          	lui	sp,0x9c4e4
    10bc:	79410113          	addi	sp,sp,1940 # 0xffffffff9c4e4794
    10c0:	400020b7          	lui	ra,0x40002
    10c4:	001080b3          	add	ra,ra,ra
    10c8:	e820b823          	sd	sp,-368(ra) # 0x40001e90
    10cc:	4e91e093          	ori	ra,gp,1257
    10d0:	41a1f213          	andi	tp,gp,1050
    10d4:	ac4fe337          	lui	t1,0xac4fe
    10d8:	fb118093          	addi	ra,gp,-79 # 0xffffffffb8bddfb1
    10dc:	00008993          	mv	s3,ra
    10e0:	18198c63          	beq	s3,ra,0x1278
    10e4:	ae411137          	lui	sp,0xae411
    10e8:	400020b7          	lui	ra,0x40002
    10ec:	001080b3          	add	ra,ra,ra
    10f0:	e830b423          	sd	gp,-376(ra) # 0x40001e88
    10f4:	40002137          	lui	sp,0x40002
    10f8:	00210133          	add	sp,sp,sp
    10fc:	e8813103          	ld	sp,-376(sp) # 0x40001e88
    1100:	99de9137          	lui	sp,0x99de9
    1104:	30916213          	ori	tp,sp,777
    1108:	aaf17093          	andi	ra,sp,-1361
    110c:	ee89d1b7          	lui	gp,0xee89d
    1110:	32008093          	addi	ra,ra,800
    1114:	08b60137          	lui	sp,0x8b60
    1118:	50d04e37          	lui	t3,0x50d04
    111c:	140be193          	ori	gp,s7,320
    1120:	9e316293          	ori	t0,sp,-1565
    1124:	400020b7          	lui	ra,0x40002
    1128:	001080b3          	add	ra,ra,ra
    112c:	e860b823          	sd	t1,-368(ra) # 0x40001e90
    1130:	3e9300b7          	lui	ra,0x3e930
    1134:	ee233737          	lui	a4,0xee233
    1138:	9f2e41b7          	lui	gp,0x9f2e4
    113c:	0180c393          	xori	t2,ra,24
    1140:	459af6b7          	lui	a3,0x459af
    1144:	40002237          	lui	tp,0x40002
    1148:	00420233          	add	tp,tp,tp
    114c:	e8123423          	sd	ra,-376(tp) # 0x40001e88
    1150:	028b4137          	lui	sp,0x28b4
    1154:	eff532b7          	lui	t0,0xeff53
    1158:	632590b7          	lui	ra,0x63259
    115c:	7c80c113          	xori	sp,ra,1992
    1160:	15300113          	li	sp,339
    1164:	ae218ee3          	beq	gp,sp,0xc60
    1168:	af9ff0ef          	jal	ra,0xc60
    116c:	f6408c13          	addi	s8,ra,-156 # 0x63258f64
    1170:	b7394137          	lui	sp,0xb7394
    1174:	f9f0c337          	lui	t1,0xf9f0c
    1178:	bcf0f113          	andi	sp,ra,-1073
    117c:	b5216313          	ori	t1,sp,-1198
    1180:	28fe5fb7          	lui	t6,0x28fe5
    1184:	400020b7          	lui	ra,0x40002
    1188:	001080b3          	add	ra,ra,ra
    118c:	e880b103          	ld	sp,-376(ra) # 0x40001e88
    1190:	7b310113          	addi	sp,sp,1971 # 0xffffffffb73947b3
    1194:	8d4bf137          	lui	sp,0x8d4bf
    1198:	99008093          	addi	ra,ra,-1648
    119c:	400021b7          	lui	gp,0x40002
    11a0:	003181b3          	add	gp,gp,gp
    11a4:	e901b783          	ld	a5,-368(gp) # 0x40001e90
    11a8:	eaf7e1b7          	lui	gp,0xeaf7e
    11ac:	b600e113          	ori	sp,ra,-1184
    11b0:	6dbb6137          	lui	sp,0x6dbb6
    11b4:	10f1e113          	ori	sp,gp,271
    11b8:	f15133b7          	lui	t2,0xf1513
    11bc:	77a191b7          	lui	gp,0x77a19
    11c0:	43c272b7          	lui	t0,0x43c27
    11c4:	5801c093          	xori	ra,gp,1408
    11c8:	0f410193          	addi	gp,sp,244 # 0x6dbb60f4
    11cc:	de8c10b7          	lui	ra,0xde8c1
    11d0:	36430193          	addi	gp,t1,868 # 0xfffffffff9f0c364
    11d4:	0af1c3b7          	lui	t2,0xaf1c
    11d8:	93c16913          	ori	s2,sp,-1732
    11dc:	6906f393          	andi	t2,a3,1680
    11e0:	01718263          	beq	gp,s7,0x11e4
    11e4:	211001ef          	jal	gp,0x1bf4
    11e8:	a332b4b7          	lui	s1,0xa332b
    11ec:	c010f093          	andi	ra,ra,-1023
    11f0:	2c01e093          	ori	ra,gp,704
    11f4:	0c24c037          	lui	zero,0xc24c
    11f8:	faf0f093          	andi	ra,ra,-81
    11fc:	50e1e0b7          	lui	ra,0x50e1e
    1200:	400021b7          	lui	gp,0x40002
    1204:	003181b3          	add	gp,gp,gp
    1208:	e811b823          	sd	ra,-368(gp) # 0x40001e90
    120c:	2e237193          	andi	gp,t1,738
    1210:	3b11f193          	andi	gp,gp,945
    1214:	23917193          	andi	gp,sp,569
    1218:	b7f16b93          	ori	s7,sp,-1153
    121c:	5a21f113          	andi	sp,gp,1442
    1220:	6ea1c193          	xori	gp,gp,1770
    1224:	da4250b7          	lui	ra,0xda425
    1228:	8c00f093          	andi	ra,ra,-1856
    122c:	5e307313          	andi	t1,zero,1507
    1230:	05f18113          	addi	sp,gp,95
    1234:	73cad037          	lui	zero,0x73cad
    1238:	400020b7          	lui	ra,0x40002
    123c:	001080b3          	add	ra,ra,ra
    1240:	e900b083          	ld	ra,-368(ra) # 0x40001e90
    1244:	279061b7          	lui	gp,0x27906
    1248:	f7a04213          	xori	tp,zero,-134
    124c:	86a63137          	lui	sp,0x86a63
    1250:	400027b7          	lui	a5,0x40002
    1254:	00f787b3          	add	a5,a5,a5
    1258:	e887b183          	ld	gp,-376(a5) # 0x40001e88
    125c:	c9b36037          	lui	zero,0xc9b36
    1260:	3b8b60b7          	lui	ra,0x3b8b6
    1264:	0acfd0b7          	lui	ra,0xacfd
    1268:	0517c793          	xori	a5,a5,81
    126c:	f180f313          	andi	t1,ra,-232
    1270:	00058313          	mv	t1,a1
    1274:	cab308e3          	beq	t1,a1,0xf24
    1278:	66216193          	ori	gp,sp,1634
    127c:	400021b7          	lui	gp,0x40002
    1280:	003181b3          	add	gp,gp,gp
    1284:	e901b603          	ld	a2,-368(gp) # 0x40001e90
    1288:	f840c493          	xori	s1,ra,-124
    128c:	35117193          	andi	gp,sp,849
    1290:	4a0150b7          	lui	ra,0x4a015
    1294:	f42c70b7          	lui	ra,0xf42c7
    1298:	d3908093          	addi	ra,ra,-711 # 0xfffffffff42c6d39
    129c:	dda1ff13          	andi	t5,gp,-550
    12a0:	fd8de137          	lui	sp,0xfd8de
    12a4:	8f8bf137          	lui	sp,0x8f8bf
    12a8:	d1e3c313          	xori	t1,t2,-738
    12ac:	bc8310b7          	lui	ra,0xbc831
    12b0:	dce1c213          	xori	tp,gp,-562
    12b4:	6148a0b7          	lui	ra,0x6148a
    12b8:	4f578093          	addi	ra,a5,1269
    12bc:	49516393          	ori	t2,sp,1173
    12c0:	8d38e037          	lui	zero,0x8d38e
    12c4:	577482b7          	lui	t0,0x57748
    12c8:	5dc914b7          	lui	s1,0x5dc91
    12cc:	90c1e193          	ori	gp,gp,-1780
    12d0:	4ac763b7          	lui	t2,0x4ac76
    12d4:	68508013          	addi	zero,ra,1669 # 0x6148a685
    12d8:	37704393          	xori	t2,zero,887
    12dc:	7360c293          	xori	t0,ra,1846
    12e0:	922af137          	lui	sp,0x922af
    12e4:	34a53037          	lui	zero,0x34a53
    12e8:	fbf18093          	addi	ra,gp,-65
    12ec:	96e71a37          	lui	s4,0x96e71
    12f0:	444402b7          	lui	t0,0x44440
    12f4:	03c900b7          	lui	ra,0x3c90
    12f8:	be5150b7          	lui	ra,0xbe515
    12fc:	15468193          	addi	gp,a3,340 # 0x459af154
    1300:	69b450b7          	lui	ra,0x69b45
    1304:	158b0263          	beq	s6,s8,0x1448
    1308:	1400026f          	jal	tp,0x1448
    130c:	400020b7          	lui	ra,0x40002
    1310:	001080b3          	add	ra,ra,ra
    1314:	e830b823          	sd	gp,-368(ra) # 0x40001e90
    1318:	fa40c113          	xori	sp,ra,-92
    131c:	53736093          	ori	ra,t1,1335
    1320:	0e200213          	li	tp,226
    1324:	5a75a1b7          	lui	gp,0x5a75a
    1328:	3361c213          	xori	tp,gp,822
    132c:	4d53b137          	lui	sp,0x4d53b
    1330:	b107c193          	xori	gp,a5,-1264
    1334:	400020b7          	lui	ra,0x40002
    1338:	001080b3          	add	ra,ra,ra
    133c:	e810b423          	sd	ra,-376(ra) # 0x40001e88
    1340:	84c08137          	lui	sp,0x84c08
    1344:	a0ddc237          	lui	tp,0xa0ddc
    1348:	1bfd0137          	lui	sp,0x1bfd0
    134c:	d781f013          	andi	zero,gp,-648
    1350:	abee70b7          	lui	ra,0xabee7
    1354:	1b16f5b7          	lui	a1,0x1b16f
    1358:	6ef00193          	li	gp,1775
    135c:	66e660b7          	lui	ra,0x66e66
    1360:	e78ed1b7          	lui	gp,0xe78ed
    1364:	83d14193          	xori	gp,sp,-1987
    1368:	22220213          	addi	tp,tp,546 # 0xffffffffa0ddc222
    136c:	2890c193          	xori	gp,ra,649
    1370:	400022b7          	lui	t0,0x40002
    1374:	005282b3          	add	t0,t0,t0
    1378:	e832b823          	sd	gp,-368(t0) # 0x40001e90
    137c:	9500c793          	xori	a5,ra,-1712
    1380:	213bb037          	lui	zero,0x213bb
    1384:	6b304513          	xori	a0,zero,1715
    1388:	400020b7          	lui	ra,0x40002
    138c:	001080b3          	add	ra,ra,ra
    1390:	e830b423          	sd	gp,-376(ra) # 0x40001e88
    1394:	c0207193          	andi	gp,zero,-1022
    1398:	18710093          	addi	ra,sp,391 # 0x1bfd0187
    139c:	d8d0d137          	lui	sp,0xd8d0d
    13a0:	9a610313          	addi	t1,sp,-1626 # 0xffffffffd8d0c9a6
    13a4:	9c3106e3          	beq	sp,gp,0xd70
    13a8:	9c9ff26f          	jal	tp,0xd70
    13ac:	400020b7          	lui	ra,0x40002
    13b0:	001080b3          	add	ra,ra,ra
    13b4:	e820b423          	sd	sp,-376(ra) # 0x40001e88
    13b8:	0b3c80b7          	lui	ra,0xb3c8
    13bc:	03130113          	addi	sp,t1,49
    13c0:	ff78c137          	lui	sp,0xff78c
    13c4:	ee71e093          	ori	ra,gp,-281
    13c8:	442ac1b7          	lui	gp,0x442ac
    13cc:	400020b7          	lui	ra,0x40002
    13d0:	001080b3          	add	ra,ra,ra
    13d4:	e880b083          	ld	ra,-376(ra) # 0x40001e88
    13d8:	bf600093          	li	ra,-1034
    13dc:	4b3490b7          	lui	ra,0x4b349
    13e0:	c8a2f193          	andi	gp,t0,-886
    13e4:	13d1f313          	andi	t1,gp,317
    13e8:	5b74b0b7          	lui	ra,0x5b74b
    13ec:	dd34b0b7          	lui	ra,0xdd34b
    13f0:	0c70c313          	xori	t1,ra,199
    13f4:	51be40b7          	lui	ra,0x51be4
    13f8:	bc03c2b7          	lui	t0,0xbc03c
    13fc:	23d0a0b7          	lui	ra,0x23d0a
    1400:	88b28313          	addi	t1,t0,-1909 # 0xffffffffbc03b88b
    1404:	9371c093          	xori	ra,gp,-1737
    1408:	c1e69237          	lui	tp,0xc1e69
    140c:	9b424093          	xori	ra,tp,-1612
    1410:	e9c82137          	lui	sp,0xe9c82
    1414:	6320cd93          	xori	s11,ra,1586
    1418:	5750a0b7          	lui	ra,0x5750a
    141c:	f6c20193          	addi	gp,tp,-148 # 0xffffffffc1e68f6c
    1420:	40002337          	lui	t1,0x40002
    1424:	00630333          	add	t1,t1,t1
    1428:	e8233423          	sd	sp,-376(t1) # 0x40001e88
    142c:	c50970b7          	lui	ra,0xc5097
    1430:	6870e193          	ori	gp,ra,1671
    1434:	e45e61b7          	lui	gp,0xe45e6
    1438:	a14e9137          	lui	sp,0xa14e9
    143c:	28416093          	ori	ra,sp,644
    1440:	00308263          	beq	ra,gp,0x1444
    1444:	f04ff1ef          	jal	gp,0xb48
    1448:	40002137          	lui	sp,0x40002
    144c:	00210133          	add	sp,sp,sp
    1450:	e8813383          	ld	t2,-376(sp) # 0x40001e88
    1454:	fdd0d1b7          	lui	gp,0xfdd0d
    1458:	a4a1f093          	andi	ra,gp,-1462
    145c:	adc981b7          	lui	gp,0xadc98
    1460:	400027b7          	lui	a5,0x40002
    1464:	00f787b3          	add	a5,a5,a5
    1468:	e817b423          	sd	ra,-376(a5) # 0x40001e88
    146c:	881d8193          	addi	gp,s11,-1919 # 0x15213881
    1470:	6ac291b7          	lui	gp,0x6ac29
    1474:	7b5ab137          	lui	sp,0x7b5ab
    1478:	2c910193          	addi	gp,sp,713 # 0x7b5ab2c9
    147c:	0b71c013          	xori	zero,gp,183
    1480:	400021b7          	lui	gp,0x40002
    1484:	003181b3          	add	gp,gp,gp
    1488:	e811b823          	sd	ra,-368(gp) # 0x40001e90
    148c:	e8d481b7          	lui	gp,0xe8d48
    1490:	40002137          	lui	sp,0x40002
    1494:	00210133          	add	sp,sp,sp
    1498:	e8813303          	ld	t1,-376(sp) # 0x40001e88
    149c:	678eb1b7          	lui	gp,0x678eb
    14a0:	2943e293          	ori	t0,t2,660
    14a4:	d4a3f313          	andi	t1,t2,-694
    14a8:	35f1f093          	andi	ra,gp,863
    14ac:	69228093          	addi	ra,t0,1682
    14b0:	6c843237          	lui	tp,0x6c843
    14b4:	63b6d137          	lui	sp,0x63b6d
    14b8:	400020b7          	lui	ra,0x40002
    14bc:	001080b3          	add	ra,ra,ra
    14c0:	e900b003          	ld	zero,-368(ra) # 0x40001e90
    14c4:	4cd1e313          	ori	t1,gp,1229
    14c8:	82c10193          	addi	gp,sp,-2004 # 0x63b6c82c
    14cc:	be60c093          	xori	ra,ra,-1050
    14d0:	3ac28493          	addi	s1,t0,940
    14d4:	e5208193          	addi	gp,ra,-430
    14d8:	fe77c113          	xori	sp,a5,-25
    14dc:	00000013          	nop
    14e0:	e20006e3          	beqz	zero,0x130c
    14e4:	400020b7          	lui	ra,0x40002
    14e8:	001080b3          	add	ra,ra,ra
    14ec:	e900b083          	ld	ra,-368(ra) # 0x40001e90
    14f0:	ceb161b7          	lui	gp,0xceb16
    14f4:	2beb01b7          	lui	gp,0x2beb0
    14f8:	59ec71b7          	lui	gp,0x59ec7
    14fc:	e6642137          	lui	sp,0xe6642
    1500:	e4c08313          	addi	t1,ra,-436
    1504:	400024b7          	lui	s1,0x40002
    1508:	009484b3          	add	s1,s1,s1
    150c:	e884b183          	ld	gp,-376(s1) # 0x40001e88
    1510:	40002237          	lui	tp,0x40002
    1514:	00420233          	add	tp,tp,tp
    1518:	e9023103          	ld	sp,-368(tp) # 0x40001e90
    151c:	39e07137          	lui	sp,0x39e07
    1520:	400020b7          	lui	ra,0x40002
    1524:	001080b3          	add	ra,ra,ra
    1528:	e900b303          	ld	t1,-368(ra) # 0x40001e90
    152c:	04f920b7          	lui	ra,0x4f92
    1530:	400021b7          	lui	gp,0x40002
    1534:	003181b3          	add	gp,gp,gp
    1538:	e821b823          	sd	sp,-368(gp) # 0x40001e90
    153c:	5d1481b7          	lui	gp,0x5d148
    1540:	b451c113          	xori	sp,gp,-1211
    1544:	6fb43137          	lui	sp,0x6fb43
    1548:	36816593          	ori	a1,sp,872
    154c:	58495137          	lui	sp,0x58495
    1550:	d320c113          	xori	sp,ra,-718
    1554:	8100f193          	andi	gp,ra,-2032
    1558:	00618263          	beq	gp,t1,0x155c
    155c:	e7cff16f          	jal	sp,0xbd8
    1560:	ba118093          	addi	ra,gp,-1119 # 0x5d147ba1
    1564:	0fd6f193          	andi	gp,a3,253
    1568:	c9107393          	andi	t2,zero,-879
    156c:	f9303237          	lui	tp,0xf9303
    1570:	b559c0b7          	lui	ra,0xb559c
    1574:	1e38b137          	lui	sp,0x1e38b
    1578:	40002a37          	lui	s4,0x40002
    157c:	014a0a33          	add	s4,s4,s4
    1580:	e83a3823          	sd	gp,-368(s4) # 0x40001e90
    1584:	c72b91b7          	lui	gp,0xc72b9
    1588:	4862c193          	xori	gp,t0,1158
    158c:	400021b7          	lui	gp,0x40002
    1590:	003181b3          	add	gp,gp,gp
    1594:	e801b823          	sd	zero,-368(gp) # 0x40001e90
    1598:	4c408093          	addi	ra,ra,1220 # 0xffffffffb559c4c4
    159c:	9d21c193          	xori	gp,gp,-1582
    15a0:	7747e1b7          	lui	gp,0x7747e
    15a4:	c5c81137          	lui	sp,0xc5c81
    15a8:	88807193          	andi	gp,zero,-1912
    15ac:	bb781137          	lui	sp,0xbb781
    15b0:	d450e093          	ori	ra,ra,-699
    15b4:	7c2343b7          	lui	t2,0x7c234
    15b8:	e7914113          	xori	sp,sp,-391
    15bc:	40002137          	lui	sp,0x40002
    15c0:	00210133          	add	sp,sp,sp
    15c4:	e8213423          	sd	sp,-376(sp) # 0x40001e88
    15c8:	d7a6c0b7          	lui	ra,0xd7a6c
    15cc:	7c9dc1b7          	lui	gp,0x7c9dc
    15d0:	0d16d0b7          	lui	ra,0xd16d
    15d4:	3ff2f0b7          	lui	ra,0x3ff2f
    15d8:	94a26093          	ori	ra,tp,-1718
    15dc:	40002237          	lui	tp,0x40002
    15e0:	00420233          	add	tp,tp,tp
    15e4:	e8323423          	sd	gp,-376(tp) # 0x40001e88
    15e8:	eed38ee3          	beq	t2,a3,0x14e4
    15ec:	ef9ff36f          	jal	t1,0x14e4
    15f0:	32067137          	lui	sp,0x32067
    15f4:	40002737          	lui	a4,0x40002
    15f8:	00e70733          	add	a4,a4,a4
    15fc:	e9073283          	ld	t0,-368(a4) # 0x40001e90
    1600:	55000113          	li	sp,1360
    1604:	9c01e013          	ori	zero,gp,-1600
    1608:	80d08093          	addi	ra,ra,-2035 # 0x3ff2e80d
    160c:	400020b7          	lui	ra,0x40002
    1610:	001080b3          	add	ra,ra,ra
    1614:	e820b423          	sd	sp,-376(ra) # 0x40001e88
    1618:	48917493          	andi	s1,sp,1161
    161c:	6319ec37          	lui	s8,0x6319e
    1620:	b323c193          	xori	gp,t2,-1230
    1624:	3e71e013          	ori	zero,gp,999
    1628:	2b806793          	ori	a5,zero,696
    162c:	b2eb91b7          	lui	gp,0xb2eb9
    1630:	69aea0b7          	lui	ra,0x69aea
    1634:	26128113          	addi	sp,t0,609
    1638:	112540b7          	lui	ra,0x11254
    163c:	43b1f393          	andi	t2,gp,1083
    1640:	40002337          	lui	t1,0x40002
    1644:	00630333          	add	t1,t1,t1
    1648:	e8833203          	ld	tp,-376(t1) # 0x40001e88
    164c:	fac3c393          	xori	t2,t2,-84
    1650:	40002137          	lui	sp,0x40002
    1654:	00210133          	add	sp,sp,sp
    1658:	e8313423          	sd	gp,-376(sp) # 0x40001e88
    165c:	2801c093          	xori	ra,gp,640
    1660:	9c10e293          	ori	t0,ra,-1599
    1664:	4c0b00b7          	lui	ra,0x4c0b0
    1668:	0cbfe1b7          	lui	gp,0xcbfe
    166c:	7a94c3b7          	lui	t2,0x7a94c
    1670:	7a6f80b7          	lui	ra,0x7a6f8
    1674:	444c1137          	lui	sp,0x444c1
    1678:	7f6d01b7          	lui	gp,0x7f6d0
    167c:	d21188e3          	beq	gp,ra,0x13ac
    1680:	d2dff0ef          	jal	ra,0x13ac
    1684:	33559337          	lui	t1,0x33559
    1688:	400021b7          	lui	gp,0x40002
    168c:	003181b3          	add	gp,gp,gp
    1690:	e8d1b823          	sd	a3,-368(gp) # 0x40001e90
    1694:	baa26193          	ori	gp,tp,-1110
    1698:	33ba5337          	lui	t1,0x33ba5
    169c:	910be3b7          	lui	t2,0x910be
    16a0:	243e4313          	xori	t1,t3,579
    16a4:	fff219b7          	lui	s3,0xfff21
    16a8:	5642f213          	andi	tp,t0,1380
    16ac:	400021b7          	lui	gp,0x40002
    16b0:	003181b3          	add	gp,gp,gp
    16b4:	e901b583          	ld	a1,-368(gp) # 0x40001e90
    16b8:	400023b7          	lui	t2,0x40002
    16bc:	007383b3          	add	t2,t2,t2
    16c0:	e823b423          	sd	sp,-376(t2) # 0x40001e88
    16c4:	c8f06113          	ori	sp,zero,-881
    16c8:	402d4137          	lui	sp,0x402d4
    16cc:	93918093          	addi	ra,gp,-1735
    16d0:	2b3cd137          	lui	sp,0x2b3cd
    16d4:	b15f9137          	lui	sp,0xb15f9
    16d8:	400021b7          	lui	gp,0x40002
    16dc:	003181b3          	add	gp,gp,gp
    16e0:	e801b423          	sd	zero,-376(gp) # 0x40001e88
    16e4:	1f9273b7          	lui	t2,0x1f927
    16e8:	19ec3137          	lui	sp,0x19ec3
    16ec:	bac5e3b7          	lui	t2,0xbac5e
    16f0:	70817193          	andi	gp,sp,1800
    16f4:	ca62f113          	andi	sp,t0,-858
    16f8:	7606d2b7          	lui	t0,0x7606d
    16fc:	f1306113          	ori	sp,zero,-237
    1700:	dfb8f113          	andi	sp,a7,-517
    1704:	00010513          	mv	a0,sp
    1708:	70250c63          	beq	a0,sp,0x1e20
    170c:	85908113          	addi	sp,ra,-1959 # 0x7a6f7859
    1710:	ff48b0b7          	lui	ra,0xff48b
    1714:	478b21b7          	lui	gp,0x478b2
    1718:	bdfc91b7          	lui	gp,0xbdfc9
    171c:	41538013          	addi	zero,t2,1045 # 0xffffffffbac5e415
    1720:	9ac91237          	lui	tp,0x9ac91
    1724:	da66f037          	lui	zero,0xda66f
    1728:	e4d0e313          	ori	t1,ra,-435
    172c:	db71f113          	andi	sp,gp,-585
    1730:	b9694437          	lui	s0,0xb9694
    1734:	b915bdb7          	lui	s11,0xb915b
    1738:	0a01e093          	ori	ra,gp,160
    173c:	fceee0b7          	lui	ra,0xfceee
    1740:	8200f093          	andi	ra,ra,-2016
    1744:	11518113          	addi	sp,gp,277 # 0xffffffffbdfc9115
    1748:	42616093          	ori	ra,sp,1062
    174c:	e9d201b7          	lui	gp,0xe9d20
    1750:	c9f5d0b7          	lui	ra,0xc9f5d
    1754:	400022b7          	lui	t0,0x40002
    1758:	005282b3          	add	t0,t0,t0
    175c:	e812b823          	sd	ra,-368(t0) # 0x40001e90
    1760:	66b27093          	andi	ra,tp,1643
    1764:	243e80b7          	lui	ra,0x243e8
    1768:	ed33e337          	lui	t1,0xed33e
    176c:	605631b7          	lui	gp,0x60563
    1770:	40002137          	lui	sp,0x40002
    1774:	00210133          	add	sp,sp,sp
    1778:	e8113423          	sd	ra,-376(sp) # 0x40001e88
    177c:	73d49137          	lui	sp,0x73d49
    1780:	00018113          	mv	sp,gp
    1784:	34310463          	beq	sp,gp,0x1acc
    1788:	2e5fd137          	lui	sp,0x2e5fd
    178c:	0da36113          	ori	sp,t1,218
    1790:	be814113          	xori	sp,sp,-1048
    1794:	b4e0ee13          	ori	t3,ra,-1202
    1798:	12d5d0b7          	lui	ra,0x12d5d
    179c:	c0c18013          	addi	zero,gp,-1012 # 0x60562c0c
    17a0:	785e1037          	lui	zero,0x785e1
    17a4:	f69a8137          	lui	sp,0xf69a8
    17a8:	032a91b7          	lui	gp,0x32a9
    17ac:	eb007013          	andi	zero,zero,-336
    17b0:	e6616313          	ori	t1,sp,-410
    17b4:	400023b7          	lui	t2,0x40002
    17b8:	007383b3          	add	t2,t2,t2
    17bc:	e833b823          	sd	gp,-368(t2) # 0x40001e90
    17c0:	1b990137          	lui	sp,0x1b990
    17c4:	82db20b7          	lui	ra,0x82db2
    17c8:	9de1f193          	andi	gp,gp,-1570
    17cc:	374a6137          	lui	sp,0x374a6
    17d0:	f90cd1b7          	lui	gp,0xf90cd
    17d4:	87510213          	addi	tp,sp,-1931 # 0x374a5875
    17d8:	8da802b7          	lui	t0,0x8da80
    17dc:	63fcd0b7          	lui	ra,0x63fcd
    17e0:	72b0c193          	xori	gp,ra,1835
    17e4:	167dc1b7          	lui	gp,0x167dc
    17e8:	5b9fb0b7          	lui	ra,0x5b9fb
    17ec:	1ff0c313          	xori	t1,ra,511
    17f0:	41b3c093          	xori	ra,t2,1051
    17f4:	3b108793          	addi	a5,ra,945 # 0x5b9fb3b1
    17f8:	a000e313          	ori	t1,ra,-1536
    17fc:	ecf6e1b7          	lui	gp,0xecf6e
    1800:	544dd1b7          	lui	gp,0x544dd
    1804:	00110263          	beq	sp,ra,0x1808
    1808:	071000ef          	jal	ra,0x2078
    180c:	08136013          	ori	zero,t1,129
    1810:	40002137          	lui	sp,0x40002
    1814:	00210133          	add	sp,sp,sp
    1818:	e8113423          	sd	ra,-376(sp) # 0x40001e88
    181c:	4bd100b7          	lui	ra,0x4bd10
    1820:	f65e3137          	lui	sp,0xf65e3
    1824:	88f2c193          	xori	gp,t0,-1905
    1828:	46e14193          	xori	gp,sp,1134
    182c:	601f1737          	lui	a4,0x601f1
    1830:	fb6c6237          	lui	tp,0xfb6c6
    1834:	c22e10b7          	lui	ra,0xc22e1
    1838:	49d25037          	lui	zero,0x49d25
    183c:	79857137          	lui	sp,0x79857
    1840:	2e66b0b7          	lui	ra,0x2e66b
    1844:	400020b7          	lui	ra,0x40002
    1848:	001080b3          	add	ra,ra,ra
    184c:	e880b083          	ld	ra,-376(ra) # 0x40001e88
    1850:	40002937          	lui	s2,0x40002
    1854:	01290933          	add	s2,s2,s2
    1858:	e8593823          	sd	t0,-368(s2) # 0x40001e90
    185c:	40002537          	lui	a0,0x40002
    1860:	00a50533          	add	a0,a0,a0
    1864:	e9253423          	sd	s2,-376(a0) # 0x40001e88
    1868:	a02e11b7          	lui	gp,0xa02e1
    186c:	c780c193          	xori	gp,ra,-904
    1870:	3ea0f037          	lui	zero,0x3ea0f
    1874:	40002337          	lui	t1,0x40002
    1878:	00630333          	add	t1,t1,t1
    187c:	e8233423          	sd	sp,-376(t1) # 0x40001e88
    1880:	117a7337          	lui	t1,0x117a7
    1884:	06a07113          	andi	sp,zero,106
    1888:	d93dd137          	lui	sp,0xd93dd
    188c:	00008293          	mv	t0,ra
    1890:	48128463          	beq	t0,ra,0x1d18
    1894:	809520b7          	lui	ra,0x80952
    1898:	3d7cb137          	lui	sp,0x3d7cb
    189c:	d368c137          	lui	sp,0xd368c
    18a0:	b4e0f0b7          	lui	ra,0xb4e0f
    18a4:	44e7f337          	lui	t1,0x44e7f
    18a8:	c97090b7          	lui	ra,0xc9709
    18ac:	bd518393          	addi	t2,gp,-1067 # 0xffffffffa02e0bd5
    18b0:	41893137          	lui	sp,0x41893
    18b4:	a1c0e093          	ori	ra,ra,-1508
    18b8:	400020b7          	lui	ra,0x40002
    18bc:	001080b3          	add	ra,ra,ra
    18c0:	e820b823          	sd	sp,-368(ra) # 0x40001e90
    18c4:	9c03cd93          	xori	s11,t2,-1600
    18c8:	9ff750b7          	lui	ra,0x9ff75
    18cc:	40002237          	lui	tp,0x40002
    18d0:	00420233          	add	tp,tp,tp
    18d4:	e8323823          	sd	gp,-368(tp) # 0x40001e90
    18d8:	24b16213          	ori	tp,sp,587
    18dc:	00d17493          	andi	s1,sp,13
    18e0:	40002337          	lui	t1,0x40002
    18e4:	00630333          	add	t1,t1,t1
    18e8:	e8833083          	ld	ra,-376(t1) # 0x40001e88
    18ec:	618d00b7          	lui	ra,0x618d0
    18f0:	90b10293          	addi	t0,sp,-1781 # 0x4189290b
    18f4:	15716193          	ori	gp,sp,343
    18f8:	fda3e193          	ori	gp,t2,-38
    18fc:	8689f3b7          	lui	t2,0x8689f
    1900:	400021b7          	lui	gp,0x40002
    1904:	003181b3          	add	gp,gp,gp
    1908:	e821b423          	sd	sp,-376(gp) # 0x40001e88
    190c:	e9d18c13          	addi	s8,gp,-355
    1910:	288691b7          	lui	gp,0x28869
    1914:	3e268113          	addi	sp,a3,994
    1918:	400020b7          	lui	ra,0x40002
    191c:	001080b3          	add	ra,ra,ra
    1920:	e880b183          	ld	gp,-376(ra) # 0x40001e88
    1924:	acaac0b7          	lui	ra,0xacaac
    1928:	00028093          	mv	ra,t0
    192c:	22508c63          	beq	ra,t0,0x1b64
    1930:	61a1e093          	ori	ra,gp,1562
    1934:	400025b7          	lui	a1,0x40002
    1938:	00b585b3          	add	a1,a1,a1
    193c:	e835b823          	sd	gp,-368(a1) # 0x40001e90
    1940:	f6a4e193          	ori	gp,s1,-150
    1944:	400021b7          	lui	gp,0x40002
    1948:	003181b3          	add	gp,gp,gp
    194c:	e901b103          	ld	sp,-368(gp) # 0x40001e90
    1950:	1601d137          	lui	sp,0x1601d
    1954:	36108213          	addi	tp,ra,865 # 0xffffffffacaac361
    1958:	67d17113          	andi	sp,sp,1661
    195c:	8428f237          	lui	tp,0x8428f
    1960:	ee7591b7          	lui	gp,0xee759
    1964:	9300c193          	xori	gp,ra,-1744
    1968:	3a5e00b7          	lui	ra,0x3a5e0
    196c:	e6a1e193          	ori	gp,gp,-406
    1970:	02190e93          	addi	t4,s2,33
    1974:	79810213          	addi	tp,sp,1944 # 0x1601d798
    1978:	3a3611b7          	lui	gp,0x3a361
    197c:	40002137          	lui	sp,0x40002
    1980:	00210133          	add	sp,sp,sp
    1984:	e8413823          	sd	tp,-368(sp) # 0x40001e90
    1988:	18208193          	addi	gp,ra,386 # 0x3a5e0182
    198c:	e80840b7          	lui	ra,0xe8084
    1990:	1fd3a0b7          	lui	ra,0x1fd3a
    1994:	9ba17093          	andi	ra,sp,-1606
    1998:	58b7e093          	ori	ra,a5,1419
    199c:	a40350b7          	lui	ra,0xa4035
    19a0:	400020b7          	lui	ra,0x40002
    19a4:	001080b3          	add	ra,ra,ra
    19a8:	e880b103          	ld	sp,-376(ra) # 0x40001e88
    19ac:	00010093          	mv	ra,sp
    19b0:	50208263          	beq	ra,sp,0x1eb4
    19b4:	51202137          	lui	sp,0x51202
    19b8:	607661b7          	lui	gp,0x60766
    19bc:	400023b7          	lui	t2,0x40002
    19c0:	007383b3          	add	t2,t2,t2
    19c4:	e903b183          	ld	gp,-368(t2) # 0x40001e90
    19c8:	400022b7          	lui	t0,0x40002
    19cc:	005282b3          	add	t0,t0,t0
    19d0:	e902b083          	ld	ra,-368(t0) # 0x40001e90
    19d4:	400023b7          	lui	t2,0x40002
    19d8:	007383b3          	add	t2,t2,t2
    19dc:	e843b823          	sd	tp,-368(t2) # 0x40001e90
    19e0:	1db14113          	xori	sp,sp,475
    19e4:	00537a13          	andi	s4,t1,5
    19e8:	40002337          	lui	t1,0x40002
    19ec:	00630333          	add	t1,t1,t1
    19f0:	e8333423          	sd	gp,-376(t1) # 0x40001e88
    19f4:	865d60b7          	lui	ra,0x865d6
    19f8:	3462f0b7          	lui	ra,0x3462f
    19fc:	c5826113          	ori	sp,tp,-936
    1a00:	938db1b7          	lui	gp,0x938db
    1a04:	c6608093          	addi	ra,ra,-922 # 0x3462ec66
    1a08:	e620c093          	xori	ra,ra,-414
    1a0c:	f94c8337          	lui	t1,0xf94c8
    1a10:	4fd18093          	addi	ra,gp,1277 # 0xffffffff938db4fd
    1a14:	85feb3b7          	lui	t2,0x85feb
    1a18:	1cb0c213          	xori	tp,ra,459
    1a1c:	562ca3b7          	lui	t2,0x562ca
    1a20:	94510193          	addi	gp,sp,-1723 # 0x51201945
    1a24:	23836213          	ori	tp,t1,568
    1a28:	0452e093          	ori	ra,t0,69
    1a2c:	400026b7          	lui	a3,0x40002
    1a30:	00d686b3          	add	a3,a3,a3
    1a34:	e816b823          	sd	ra,-368(a3) # 0x40001e90
    1a38:	45b7e0b7          	lui	ra,0x45b7e
    1a3c:	00018d13          	mv	s10,gp
    1a40:	503d0463          	beq	s10,gp,0x1f48
    1a44:	c801c693          	xori	a3,gp,-896
    1a48:	873691b7          	lui	gp,0x87369
    1a4c:	40002237          	lui	tp,0x40002
    1a50:	00420233          	add	tp,tp,tp
    1a54:	e9023183          	ld	gp,-368(tp) # 0x40001e90
    1a58:	41e5a237          	lui	tp,0x41e5a
    1a5c:	b5238093          	addi	ra,t2,-1198 # 0x562c9b52
    1a60:	0b03b1b7          	lui	gp,0xb03b
    1a64:	00510113          	addi	sp,sp,5
    1a68:	40002137          	lui	sp,0x40002
    1a6c:	00210133          	add	sp,sp,sp
    1a70:	e8613423          	sd	t1,-376(sp) # 0x40001e88
    1a74:	4820f113          	andi	sp,ra,1154
    1a78:	d98bc637          	lui	a2,0xd98bc
    1a7c:	9df4f1b7          	lui	gp,0x9df4f
    1a80:	fd916213          	ori	tp,sp,-39
    1a84:	91810313          	addi	t1,sp,-1768
    1a88:	40002337          	lui	t1,0x40002
    1a8c:	00630333          	add	t1,t1,t1
    1a90:	e8333823          	sd	gp,-368(t1) # 0x40001e90
    1a94:	a8a0f193          	andi	gp,ra,-1398
    1a98:	d92843b7          	lui	t2,0xd9284
    1a9c:	27f2f237          	lui	tp,0x27f2f
    1aa0:	c0c10113          	addi	sp,sp,-1012
    1aa4:	40002137          	lui	sp,0x40002
    1aa8:	00210133          	add	sp,sp,sp
    1aac:	e8313823          	sd	gp,-368(sp) # 0x40001e90
    1ab0:	a017a237          	lui	tp,0xa017a
    1ab4:	fabfc037          	lui	zero,0xfabfc
    1ab8:	6498a337          	lui	t1,0x6498a
    1abc:	154b6293          	ori	t0,s6,340
    1ac0:	69114093          	xori	ra,sp,1681
    1ac4:	d47104e3          	beq	sp,t2,0x180c
    1ac8:	d45ff16f          	jal	sp,0x180c
    1acc:	89b08113          	addi	sp,ra,-1893 # 0x45b7d89b
    1ad0:	20232137          	lui	sp,0x20232
    1ad4:	b9989237          	lui	tp,0xb9989
    1ad8:	bc51c193          	xori	gp,gp,-1083
    1adc:	20543237          	lui	tp,0x20543
    1ae0:	fb51e713          	ori	a4,gp,-75
    1ae4:	40002137          	lui	sp,0x40002
    1ae8:	00210133          	add	sp,sp,sp
    1aec:	e8813083          	ld	ra,-376(sp) # 0x40001e88
    1af0:	023574b7          	lui	s1,0x2357
    1af4:	0df933b7          	lui	t2,0xdf93
    1af8:	bf6f53b7          	lui	t2,0xbf6f5
    1afc:	400021b7          	lui	gp,0x40002
    1b00:	003181b3          	add	gp,gp,gp
    1b04:	e901b303          	ld	t1,-368(gp) # 0x40001e90
    1b08:	9080b1b7          	lui	gp,0x9080b
    1b0c:	400020b7          	lui	ra,0x40002
    1b10:	001080b3          	add	ra,ra,ra
    1b14:	e830b823          	sd	gp,-368(ra) # 0x40001e90
    1b18:	d27921b7          	lui	gp,0xd2792
    1b1c:	0017c0b7          	lui	ra,0x17c
    1b20:	400021b7          	lui	gp,0x40002
    1b24:	003181b3          	add	gp,gp,gp
    1b28:	e821b823          	sd	sp,-368(gp) # 0x40001e90
    1b2c:	b6236213          	ori	tp,t1,-1182
    1b30:	400020b7          	lui	ra,0x40002
    1b34:	001080b3          	add	ra,ra,ra
    1b38:	e810b823          	sd	ra,-368(ra) # 0x40001e90
    1b3c:	edb40237          	lui	tp,0xedb40
    1b40:	25d541b7          	lui	gp,0x25d54
    1b44:	b490f093          	andi	ra,ra,-1207
    1b48:	d9b08137          	lui	sp,0xd9b08
    1b4c:	a6d840b7          	lui	ra,0xa6d84
    1b50:	da01f393          	andi	t2,gp,-608
    1b54:	b610c093          	xori	ra,ra,-1183
    1b58:	2f0b5137          	lui	sp,0x2f0b5
    1b5c:	5a218863          	beq	gp,sp,0x210c
    1b60:	5ac0026f          	jal	tp,0x210c
    1b64:	708b5137          	lui	sp,0x708b5
    1b68:	559c0137          	lui	sp,0x559c0
    1b6c:	6a218493          	addi	s1,gp,1698 # 0x25d546a2
    1b70:	a7910093          	addi	ra,sp,-1415 # 0x559bfa79
    1b74:	ee962137          	lui	sp,0xee962
    1b78:	40002137          	lui	sp,0x40002
    1b7c:	00210133          	add	sp,sp,sp
    1b80:	e9613423          	sd	s6,-376(sp) # 0x40001e88
    1b84:	40002137          	lui	sp,0x40002
    1b88:	00210133          	add	sp,sp,sp
    1b8c:	e8713823          	sd	t2,-368(sp) # 0x40001e90
    1b90:	85a14193          	xori	gp,sp,-1958
    1b94:	0d1c40b7          	lui	ra,0xd1c4
    1b98:	e1408013          	addi	zero,ra,-492 # 0xd1c3e14
    1b9c:	dc71ff93          	andi	t6,gp,-569
    1ba0:	c76330b7          	lui	ra,0xc7633
    1ba4:	ef55d137          	lui	sp,0xef55d
    1ba8:	4986d0b7          	lui	ra,0x4986d
    1bac:	37c10137          	lui	sp,0x37c10
    1bb0:	deb0f093          	andi	ra,ra,-533
    1bb4:	6a816213          	ori	tp,sp,1704
    1bb8:	7b7f7237          	lui	tp,0x7b7f7
    1bbc:	4860f593          	andi	a1,ra,1158
    1bc0:	400021b7          	lui	gp,0x40002
    1bc4:	003181b3          	add	gp,gp,gp
    1bc8:	e881b303          	ld	t1,-376(gp) # 0x40001e88
    1bcc:	9f72d1b7          	lui	gp,0x9f72d
    1bd0:	400020b7          	lui	ra,0x40002
    1bd4:	001080b3          	add	ra,ra,ra
    1bd8:	e880b383          	ld	t2,-376(ra) # 0x40001e88
    1bdc:	725081b7          	lui	gp,0x72508
    1be0:	8095f137          	lui	sp,0x8095f
    1be4:	fe10f113          	andi	sp,ra,-31
    1be8:	3eb471b7          	lui	gp,0x3eb47
    1bec:	08510863          	beq	sp,t0,0x1c7c
    1bf0:	08c0026f          	jal	tp,0x1c7c
    1bf4:	93608193          	addi	gp,ra,-1738
    1bf8:	f3b440b7          	lui	ra,0xf3b44
    1bfc:	40002137          	lui	sp,0x40002
    1c00:	00210133          	add	sp,sp,sp
    1c04:	e8813203          	ld	tp,-376(sp) # 0x40001e88
    1c08:	b3e00093          	li	ra,-1218
    1c0c:	f931e693          	ori	a3,gp,-109
    1c10:	c751f0b7          	lui	ra,0xc751f
    1c14:	2ed08237          	lui	tp,0x2ed08
    1c18:	52d0c393          	xori	t2,ra,1325
    1c1c:	9e82e0b7          	lui	ra,0x9e82e
    1c20:	d0f2f1b7          	lui	gp,0xd0f2f
    1c24:	26e1c113          	xori	sp,gp,622
    1c28:	01f18193          	addi	gp,gp,31 # 0xffffffffd0f2f01f
    1c2c:	8c106013          	ori	zero,zero,-1855
    1c30:	2ebcf1b7          	lui	gp,0x2ebcf
    1c34:	09a0c093          	xori	ra,ra,154
    1c38:	40002837          	lui	a6,0x40002
    1c3c:	01080833          	add	a6,a6,a6
    1c40:	e8183423          	sd	ra,-376(a6) # 0x40001e88
    1c44:	68c98237          	lui	tp,0x68c98
    1c48:	0e614193          	xori	gp,sp,230
    1c4c:	3492a137          	lui	sp,0x3492a
    1c50:	3d038193          	addi	gp,t2,976 # 0xffffffffbf6f53d0
    1c54:	93b1e013          	ori	zero,gp,-1733
    1c58:	400022b7          	lui	t0,0x40002
    1c5c:	005282b3          	add	t0,t0,t0
    1c60:	e882b183          	ld	gp,-376(t0) # 0x40001e88
    1c64:	b8118293          	addi	t0,gp,-1151 # 0x2ebceb81
    1c68:	2ac27137          	lui	sp,0x2ac27
    1c6c:	4a02a1b7          	lui	gp,0x4a02a
    1c70:	4ca1e513          	ori	a0,gp,1226
    1c74:	00018393          	mv	t2,gp
    1c78:	ca338ce3          	beq	t2,gp,0x1930
    1c7c:	d650e193          	ori	gp,ra,-667
    1c80:	9fe85137          	lui	sp,0x9fe85
    1c84:	cef0e093          	ori	ra,ra,-785
    1c88:	0f1492b7          	lui	t0,0xf149
    1c8c:	f071c693          	xori	a3,gp,-249
    1c90:	4bd0f393          	andi	t2,ra,1213
    1c94:	1a30f113          	andi	sp,ra,419
    1c98:	afb26193          	ori	gp,tp,-1285
    1c9c:	aa9a53b7          	lui	t2,0xaa9a5
    1ca0:	11a0f013          	andi	zero,ra,282
    1ca4:	400021b7          	lui	gp,0x40002
    1ca8:	003181b3          	add	gp,gp,gp
    1cac:	e881b103          	ld	sp,-376(gp) # 0x40001e88
    1cb0:	aff1e793          	ori	a5,gp,-1281
    1cb4:	9ef08113          	addi	sp,ra,-1553 # 0xffffffff9e82d9ef
    1cb8:	40002137          	lui	sp,0x40002
    1cbc:	00210133          	add	sp,sp,sp
    1cc0:	e9713423          	sd	s7,-376(sp) # 0x40001e88
    1cc4:	41f18193          	addi	gp,gp,1055
    1cc8:	ec028093          	addi	ra,t0,-320 # 0xf148ec0
    1ccc:	8e8081b7          	lui	gp,0x8e808
    1cd0:	78208093          	addi	ra,ra,1922
    1cd4:	3164b0b7          	lui	ra,0x3164b
    1cd8:	f79e91b7          	lui	gp,0xf79e9
    1cdc:	61500113          	li	sp,1557
    1ce0:	06aaa137          	lui	sp,0x6aaa
    1ce4:	26c71137          	lui	sp,0x26c71
    1ce8:	07816313          	ori	t1,sp,120
    1cec:	b7908093          	addi	ra,ra,-1159 # 0x3164ab79
    1cf0:	c428b1b7          	lui	gp,0xc428b
    1cf4:	f250c113          	xori	sp,ra,-219
    1cf8:	9c14c1b7          	lui	gp,0x9c14c
    1cfc:	a47652b7          	lui	t0,0xa4765
    1d00:	0fe17493          	andi	s1,sp,254
    1d04:	7291f313          	andi	t1,gp,1833
    1d08:	4b008113          	addi	sp,ra,1200
    1d0c:	07c0e113          	ori	sp,ra,124
    1d10:	00008113          	mv	sp,ra
    1d14:	d21108e3          	beq	sp,ra,0x1a44
    1d18:	88a24013          	xori	zero,tp,-1910
    1d1c:	01e89bb7          	lui	s7,0x1e89
    1d20:	400020b7          	lui	ra,0x40002
    1d24:	001080b3          	add	ra,ra,ra
    1d28:	e820b423          	sd	sp,-376(ra) # 0x40001e88
    1d2c:	cbc5b1b7          	lui	gp,0xcbc5b
    1d30:	69bd4137          	lui	sp,0x69bd4
    1d34:	df41f393          	andi	t2,gp,-524
    1d38:	2b127137          	lui	sp,0x2b127
    1d3c:	db3063b7          	lui	t2,0xdb306
    1d40:	6465c093          	xori	ra,a1,1606
    1d44:	5c71f493          	andi	s1,gp,1479
    1d48:	c152a2b7          	lui	t0,0xc152a
    1d4c:	f1210193          	addi	gp,sp,-238 # 0x2b126f12
    1d50:	1ce24193          	xori	gp,tp,462
    1d54:	0d716013          	ori	zero,sp,215
    1d58:	408f81b7          	lui	gp,0x408f8
    1d5c:	32ee0293          	addi	t0,t3,814 # 0x50d0432e
    1d60:	3077b0b7          	lui	ra,0x3077b
    1d64:	fc10c293          	xori	t0,ra,-63
    1d68:	5220e113          	ori	sp,ra,1314
    1d6c:	6671e393          	ori	t2,gp,1639
    1d70:	6acd3137          	lui	sp,0x6acd3
    1d74:	32128193          	addi	gp,t0,801 # 0xffffffffc152a321
    1d78:	702730b7          	lui	ra,0x70273
    1d7c:	0ce10337          	lui	t1,0xce10
    1d80:	5fc1c193          	xori	gp,gp,1532
    1d84:	d612e193          	ori	gp,t0,-671
    1d88:	b2f0f193          	andi	gp,ra,-1233
    1d8c:	acc10293          	addi	t0,sp,-1332 # 0x6acd2acc
    1d90:	aeb601b7          	lui	gp,0xaeb60
    1d94:	3c40f1b7          	lui	gp,0x3c40f
    1d98:	00030093          	mv	ra,t1
    1d9c:	24608263          	beq	ra,t1,0x1fe0
    1da0:	8b67e293          	ori	t0,a5,-1866
    1da4:	e0ad2037          	lui	zero,0xe0ad2
    1da8:	bab10293          	addi	t0,sp,-1109
    1dac:	83114113          	xori	sp,sp,-1999
    1db0:	c9b1c313          	xori	t1,gp,-869
    1db4:	ea714393          	xori	t2,sp,-345
    1db8:	bd503137          	lui	sp,0xbd503
    1dbc:	1a4ca137          	lui	sp,0x1a4ca
    1dc0:	21b9c137          	lui	sp,0x21b9c
    1dc4:	81628393          	addi	t2,t0,-2026
    1dc8:	1e717293          	andi	t0,sp,487
    1dcc:	d2008113          	addi	sp,ra,-736 # 0x70272d20
    1dd0:	43937193          	andi	gp,t1,1081
    1dd4:	46e24193          	xori	gp,tp,1134
    1dd8:	a2f1bfb7          	lui	t6,0xa2f1b
    1ddc:	c9bec1b7          	lui	gp,0xc9bec
    1de0:	b392f313          	andi	t1,t0,-1223
    1de4:	28f1c0b7          	lui	ra,0x28f1c
    1de8:	400020b7          	lui	ra,0x40002
    1dec:	001080b3          	add	ra,ra,ra
    1df0:	e900b183          	ld	gp,-368(ra) # 0x40001e90
    1df4:	400027b7          	lui	a5,0x40002
    1df8:	00f787b3          	add	a5,a5,a5
    1dfc:	e907b103          	ld	sp,-368(a5) # 0x40001e90
    1e00:	424a60b7          	lui	ra,0x424a6
    1e04:	58a14293          	xori	t0,sp,1418
    1e08:	46514613          	xori	a2,sp,1125
    1e0c:	87122137          	lui	sp,0x87122
    1e10:	40610113          	addi	sp,sp,1030 # 0xffffffff87122406
    1e14:	f571e013          	ori	zero,gp,-169
    1e18:	b8208ee3          	beq	ra,sp,0x19b4
    1e1c:	b99ff1ef          	jal	gp,0x19b4
    1e20:	a495c213          	xori	tp,a1,-1463
    1e24:	3a7a21b7          	lui	gp,0x3a7a2
    1e28:	400020b7          	lui	ra,0x40002
    1e2c:	001080b3          	add	ra,ra,ra
    1e30:	e810b423          	sd	ra,-376(ra) # 0x40001e88
    1e34:	a65fa1b7          	lui	gp,0xa65fa
    1e38:	29610093          	addi	ra,sp,662
    1e3c:	b0cf16b7          	lui	a3,0xb0cf1
    1e40:	1fd68113          	addi	sp,a3,509 # 0xffffffffb0cf11fd
    1e44:	f5518113          	addi	sp,gp,-171 # 0xffffffffa65f9f55
    1e48:	855b41b7          	lui	gp,0x855b4
    1e4c:	400020b7          	lui	ra,0x40002
    1e50:	001080b3          	add	ra,ra,ra
    1e54:	e850b423          	sd	t0,-376(ra) # 0x40001e88
    1e58:	6347b3b7          	lui	t2,0x6347b
    1e5c:	91017193          	andi	gp,sp,-1776
    1e60:	17707193          	andi	gp,zero,375
    1e64:	a497d6b7          	lui	a3,0xa497d
    1e68:	b8f0e293          	ori	t0,ra,-1137
    1e6c:	dba1e193          	ori	gp,gp,-582
    1e70:	86b16193          	ori	gp,sp,-1941
    1e74:	3a5a63b7          	lui	t2,0x3a5a6
    1e78:	df6ef3b7          	lui	t2,0xdf6ef
    1e7c:	5d80c093          	xori	ra,ra,1496
    1e80:	04d18193          	addi	gp,gp,77 # 0xffffffff855b404d
    1e84:	e6e220b7          	lui	ra,0xe6e22
    1e88:	205f52b7          	lui	t0,0x205f5
    1e8c:	9422c113          	xori	sp,t0,-1726
    1e90:	9adb8137          	lui	sp,0x9adb8
    1e94:	400021b7          	lui	gp,0x40002
    1e98:	003181b3          	add	gp,gp,gp
    1e9c:	e881b103          	ld	sp,-376(gp) # 0x40001e88
    1ea0:	7f2c71b7          	lui	gp,0x7f2c7
    1ea4:	6230e193          	ori	gp,ra,1571
    1ea8:	9081c113          	xori	sp,gp,-1784
    1eac:	8c110ee3          	beq	sp,ra,0x1788
    1eb0:	8d9ff26f          	jal	tp,0x1788
    1eb4:	c9d0e113          	ori	sp,ra,-867
    1eb8:	400021b7          	lui	gp,0x40002
    1ebc:	003181b3          	add	gp,gp,gp
    1ec0:	e821b823          	sd	sp,-368(gp) # 0x40001e90
    1ec4:	6ae18113          	addi	sp,gp,1710
    1ec8:	ee7e1137          	lui	sp,0xee7e1
    1ecc:	a97831b7          	lui	gp,0xa9783
    1ed0:	4be1f113          	andi	sp,gp,1214
    1ed4:	6c6fc337          	lui	t1,0x6c6fc
    1ed8:	40002137          	lui	sp,0x40002
    1edc:	00210133          	add	sp,sp,sp
    1ee0:	e8813083          	ld	ra,-376(sp) # 0x40001e88
    1ee4:	921d1037          	lui	zero,0x921d1
    1ee8:	9c216193          	ori	gp,sp,-1598
    1eec:	d375beb7          	lui	t4,0xd375b
    1ef0:	b15a00b7          	lui	ra,0xb15a0
    1ef4:	84945037          	lui	zero,0x84945
    1ef8:	40002137          	lui	sp,0x40002
    1efc:	00210133          	add	sp,sp,sp
    1f00:	e8213423          	sd	sp,-376(sp) # 0x40001e88
    1f04:	78c1f313          	andi	t1,gp,1932
    1f08:	8d108013          	addi	zero,ra,-1839 # 0xffffffffb159f8d1
    1f0c:	400021b7          	lui	gp,0x40002
    1f10:	003181b3          	add	gp,gp,gp
    1f14:	e831b823          	sd	gp,-368(gp) # 0x40001e90
    1f18:	cb80c093          	xori	ra,ra,-840
    1f1c:	a8288137          	lui	sp,0xa8288
    1f20:	b304c093          	xori	ra,s1,-1232
    1f24:	1c04c1b7          	lui	gp,0x1c04c
    1f28:	f21c9137          	lui	sp,0xf21c9
    1f2c:	8e608393          	addi	t2,ra,-1818
    1f30:	87d17113          	andi	sp,sp,-1923
    1f34:	9820c093          	xori	ra,ra,-1662
    1f38:	12327d93          	andi	s11,tp,291
    1f3c:	be90e293          	ori	t0,ra,-1047
    1f40:	00310263          	beq	sp,gp,0x1f44
    1f44:	f40ff26f          	jal	tp,0x1684
    1f48:	e2bf40b7          	lui	ra,0xe2bf4
    1f4c:	a95301b7          	lui	gp,0xa9530
    1f50:	ebbcc0b7          	lui	ra,0xebbcc
    1f54:	cc910093          	addi	ra,sp,-823 # 0xfffffffff21c8cc9
    1f58:	de12c093          	xori	ra,t0,-543
    1f5c:	e610f193          	andi	gp,ra,-415
    1f60:	933e7093          	andi	ra,t3,-1741
    1f64:	d12930b7          	lui	ra,0xd1293
    1f68:	a731f093          	andi	ra,gp,-1421
    1f6c:	db44e113          	ori	sp,s1,-588
    1f70:	390b95b7          	lui	a1,0x390b9
    1f74:	ed10f093          	andi	ra,ra,-303
    1f78:	00628113          	addi	sp,t0,6 # 0x205f5006
    1f7c:	400020b7          	lui	ra,0x40002
    1f80:	001080b3          	add	ra,ra,ra
    1f84:	e830b423          	sd	gp,-376(ra) # 0x40001e88
    1f88:	de5b9137          	lui	sp,0xde5b9
    1f8c:	473850b7          	lui	ra,0x47385
    1f90:	d13870b7          	lui	ra,0xd1387
    1f94:	fca950b7          	lui	ra,0xfca95
    1f98:	400020b7          	lui	ra,0x40002
    1f9c:	001080b3          	add	ra,ra,ra
    1fa0:	e820b423          	sd	sp,-376(ra) # 0x40001e88
    1fa4:	400022b7          	lui	t0,0x40002
    1fa8:	005282b3          	add	t0,t0,t0
    1fac:	e842b823          	sd	tp,-368(t0) # 0x40001e90
    1fb0:	0a233237          	lui	tp,0xa233
    1fb4:	00c14093          	xori	ra,sp,12
    1fb8:	6771f393          	andi	t2,gp,1655
    1fbc:	3020f113          	andi	sp,ra,770
    1fc0:	db036193          	ori	gp,t1,-592
    1fc4:	d3fca1b7          	lui	gp,0xd3fca
    1fc8:	b071c393          	xori	t2,gp,-1273
    1fcc:	400020b7          	lui	ra,0x40002
    1fd0:	001080b3          	add	ra,ra,ra
    1fd4:	e810b423          	sd	ra,-376(ra) # 0x40001e88
    1fd8:	74510263          	beq	sp,t0,0x271c
    1fdc:	740002ef          	jal	t0,0x271c
    1fe0:	472ba137          	lui	sp,0x472ba
    1fe4:	1d210093          	addi	ra,sp,466 # 0x472ba1d2
    1fe8:	c8358137          	lui	sp,0xc8358
    1fec:	0e9ec113          	xori	sp,t4,233
    1ff0:	896a5137          	lui	sp,0x896a5
    1ff4:	40002137          	lui	sp,0x40002
    1ff8:	00210133          	add	sp,sp,sp
    1ffc:	e9013e03          	ld	t3,-368(sp) # 0x40001e90
    2000:	5a114093          	xori	ra,sp,1441
    2004:	b3138093          	addi	ra,t2,-1231 # 0xffffffffdf6eeb31
    2008:	95330013          	addi	zero,t1,-1709 # 0x6c6fb953
    200c:	40002337          	lui	t1,0x40002
    2010:	00630333          	add	t1,t1,t1
    2014:	e9033083          	ld	ra,-368(t1) # 0x40001e90
    2018:	d0a1e193          	ori	gp,gp,-758
    201c:	89a39237          	lui	tp,0x89a39
    2020:	55c0a0b7          	lui	ra,0x55c0a
    2024:	8533e113          	ori	sp,t2,-1965
    2028:	34b1f113          	andi	sp,gp,843
    202c:	400021b7          	lui	gp,0x40002
    2030:	003181b3          	add	gp,gp,gp
    2034:	e861b823          	sd	t1,-368(gp) # 0x40001e90
    2038:	dc5bf0b7          	lui	ra,0xdc5bf
    203c:	400021b7          	lui	gp,0x40002
    2040:	003181b3          	add	gp,gp,gp
    2044:	e901b103          	ld	sp,-368(gp) # 0x40001e90
    2048:	39124193          	xori	gp,tp,913
    204c:	069ca137          	lui	sp,0x69ca
    2050:	5c917313          	andi	t1,sp,1481
    2054:	37ed90b7          	lui	ra,0x37ed9
    2058:	a2838113          	addi	sp,t2,-1496
    205c:	e474d137          	lui	sp,0xe474d
    2060:	efa0c113          	xori	sp,ra,-262
    2064:	80f1c093          	xori	ra,gp,-2033
    2068:	1fc3b1b7          	lui	gp,0x1fc3b
    206c:	8241c013          	xori	zero,gp,-2012
    2070:	00010113          	mv	sp,sp
    2074:	d22106e3          	beq	sp,sp,0x1da0
    2078:	c8c34313          	xori	t1,t1,-884
    207c:	75b406b7          	lui	a3,0x75b40
    2080:	54318237          	lui	tp,0x54318
    2084:	8c40e193          	ori	gp,ra,-1852
    2088:	4ff1e193          	ori	gp,gp,1279
    208c:	8711f193          	andi	gp,gp,-1935
    2090:	c2370113          	addi	sp,a4,-989 # 0x601f0c23
    2094:	b531c213          	xori	tp,gp,-1197
    2098:	c2f921b7          	lui	gp,0xc2f92
    209c:	d7b4a037          	lui	zero,0xd7b4a
    20a0:	a85651b7          	lui	gp,0xa8565
    20a4:	f4179037          	lui	zero,0xf4179
    20a8:	39c780b7          	lui	ra,0x39c78
    20ac:	0ff68037          	lui	zero,0xff68
    20b0:	fb104b93          	xori	s7,zero,-79
    20b4:	f8f0f113          	andi	sp,ra,-113
    20b8:	aa3e30b7          	lui	ra,0xaa3e3
    20bc:	07b3c113          	xori	sp,t2,123
    20c0:	87fa31b7          	lui	gp,0x87fa3
    20c4:	5980e313          	ori	t1,ra,1432
    20c8:	8d5451b7          	lui	gp,0x8d545
    20cc:	7930c393          	xori	t2,ra,1939
    20d0:	400020b7          	lui	ra,0x40002
    20d4:	001080b3          	add	ra,ra,ra
    20d8:	e880b283          	ld	t0,-376(ra) # 0x40001e88
    20dc:	7af0e013          	ori	zero,ra,1967
    20e0:	e27484b7          	lui	s1,0xe2748
    20e4:	2fc811b7          	lui	gp,0x2fc81
    20e8:	eae18113          	addi	sp,gp,-338 # 0x2fc80eae
    20ec:	b869d1b7          	lui	gp,0xb869d
    20f0:	400021b7          	lui	gp,0x40002
    20f4:	003181b3          	add	gp,gp,gp
    20f8:	e831b423          	sd	gp,-376(gp) # 0x40001e88
    20fc:	2aeeb0b7          	lui	ra,0x2aeeb
    2100:	3392c193          	xori	gp,t0,825
    2104:	00218263          	beq	gp,sp,0x2108
    2108:	e04ff16f          	jal	sp,0x170c
    210c:	5b6dc1b7          	lui	gp,0x5b6dc
    2110:	1abd20b7          	lui	ra,0x1abd2
    2114:	50c1f113          	andi	sp,gp,1292
    2118:	6e70e113          	ori	sp,ra,1767
    211c:	40002237          	lui	tp,0x40002
    2120:	00420233          	add	tp,tp,tp
    2124:	e8323823          	sd	gp,-368(tp) # 0x40001e90
    2128:	df23e213          	ori	tp,t2,-526
    212c:	0980f193          	andi	gp,ra,152
    2130:	400020b7          	lui	ra,0x40002
    2134:	001080b3          	add	ra,ra,ra
    2138:	e880b083          	ld	ra,-376(ra) # 0x40001e88
    213c:	4891f313          	andi	t1,gp,1161
    2140:	02f08093          	addi	ra,ra,47
    2144:	b3be61b7          	lui	gp,0xb3be6
    2148:	821cb037          	lui	zero,0x821cb
    214c:	7e936113          	ori	sp,t1,2025
    2150:	bc1dc137          	lui	sp,0xbc1dc
    2154:	c1110193          	addi	gp,sp,-1007 # 0xffffffffbc1dbc11
    2158:	48f2a237          	lui	tp,0x48f2a
    215c:	4c51c093          	xori	ra,gp,1221
    2160:	c5f42237          	lui	tp,0xc5f42
    2164:	948ef1b7          	lui	gp,0x948ef
    2168:	5280f093          	andi	ra,ra,1320
    216c:	af7931b7          	lui	gp,0xaf793
    2170:	40002137          	lui	sp,0x40002
    2174:	00210133          	add	sp,sp,sp
    2178:	e8313823          	sd	gp,-368(sp) # 0x40001e90
    217c:	58e6d1b7          	lui	gp,0x58e6d
    2180:	23b16113          	ori	sp,sp,571
    2184:	52734093          	xori	ra,t1,1319
    2188:	242810b7          	lui	ra,0x24281
    218c:	8527a137          	lui	sp,0x8527a
    2190:	00118263          	beq	gp,ra,0x2194
    2194:	f00ff1ef          	jal	gp,0x1894
    2198:	14b0e093          	ori	ra,ra,331
    219c:	d8c24213          	xori	tp,tp,-628
    21a0:	131a62b7          	lui	t0,0x131a6
    21a4:	b3bb91b7          	lui	gp,0xb3bb9
    21a8:	5b417313          	andi	t1,sp,1460
    21ac:	f1116113          	ori	sp,sp,-239
    21b0:	fc2f91b7          	lui	gp,0xfc2f9
    21b4:	a675c013          	xori	zero,a1,-1433
    21b8:	4ad24313          	xori	t1,tp,1197
    21bc:	d6e7b137          	lui	sp,0xd6e7b
    21c0:	3ce5e137          	lui	sp,0x3ce5e
    21c4:	36e740b7          	lui	ra,0x36e74
    21c8:	ec426393          	ori	t2,tp,-316
    21cc:	dcc16093          	ori	ra,sp,-564
    21d0:	88308093          	addi	ra,ra,-1917 # 0x36e73883
    21d4:	5970c113          	xori	sp,ra,1431
    21d8:	5f45e137          	lui	sp,0x5f45e
    21dc:	400022b7          	lui	t0,0x40002
    21e0:	005282b3          	add	t0,t0,t0
    21e4:	e882b183          	ld	gp,-376(t0) # 0x40001e88
    21e8:	fb7b80b7          	lui	ra,0xfb7b8
    21ec:	e4661237          	lui	tp,0xe4661
    21f0:	4a54f093          	andi	ra,s1,1189
    21f4:	40c4d0b7          	lui	ra,0x40c4d
    21f8:	c4cfc0b7          	lui	ra,0xc4cfc
    21fc:	61583237          	lui	tp,0x61583
    2200:	c6e451b7          	lui	gp,0xc6e45
    2204:	1d00e193          	ori	gp,ra,464
    2208:	c946f137          	lui	sp,0xc946f
    220c:	5431c293          	xori	t0,gp,1347
    2210:	00010393          	mv	t2,sp
    2214:	72238663          	beq	t2,sp,0x2940
    2218:	0f218093          	addi	ra,gp,242 # 0xffffffffc6e450f2
    221c:	b53b01b7          	lui	gp,0xb53b0
    2220:	f4cbf337          	lui	t1,0xf4cbf
    2224:	40002237          	lui	tp,0x40002
    2228:	00420233          	add	tp,tp,tp
    222c:	e8323423          	sd	gp,-376(tp) # 0x40001e88
    2230:	3030f193          	andi	gp,ra,771
    2234:	4660c013          	xori	zero,ra,1126
    2238:	40002137          	lui	sp,0x40002
    223c:	00210133          	add	sp,sp,sp
    2240:	e8113423          	sd	ra,-376(sp) # 0x40001e88
    2244:	1490f093          	andi	ra,ra,329
    2248:	a23ca137          	lui	sp,0xa23ca
    224c:	a7010093          	addi	ra,sp,-1424 # 0xffffffffa23c9a70
    2250:	08d0c093          	xori	ra,ra,141
    2254:	1ec36113          	ori	sp,t1,492
    2258:	1c618193          	addi	gp,gp,454 # 0xffffffffb53b01c6
    225c:	2108d0b7          	lui	ra,0x2108d
    2260:	8901e193          	ori	gp,gp,-1904
    2264:	757fa1b7          	lui	gp,0x757fa
    2268:	33021137          	lui	sp,0x33021
    226c:	96218193          	addi	gp,gp,-1694 # 0x757f9962
    2270:	f292e113          	ori	sp,t0,-215
    2274:	64fcc037          	lui	zero,0x64fcc
    2278:	84c1c113          	xori	sp,gp,-1972
    227c:	9baaf093          	andi	ra,s5,-1606
    2280:	c725d137          	lui	sp,0xc725d
    2284:	d8b98137          	lui	sp,0xd8b98
    2288:	ab827093          	andi	ra,tp,-1352
    228c:	21ea8193          	addi	gp,s5,542
    2290:	7030e2b7          	lui	t0,0x7030e
    2294:	6590e093          	ori	ra,ra,1625
    2298:	00018193          	mv	gp,gp
    229c:	50318a63          	beq	gp,gp,0x27b0
    22a0:	efb543b7          	lui	t2,0xefb54
    22a4:	266260b7          	lui	ra,0x26626
    22a8:	00995137          	lui	sp,0x995
    22ac:	34862f37          	lui	t5,0x34862
    22b0:	ed624113          	xori	sp,tp,-298
    22b4:	f543e213          	ori	tp,t2,-172
    22b8:	80988037          	lui	zero,0x80988
    22bc:	42310093          	addi	ra,sp,1059 # 0x995423
    22c0:	9f7b8137          	lui	sp,0x9f7b8
    22c4:	11e37393          	andi	t2,t1,286
    22c8:	00224193          	xori	gp,tp,2
    22cc:	ea33c113          	xori	sp,t2,-349
    22d0:	c5b08093          	addi	ra,ra,-933 # 0x26625c5b
    22d4:	80516013          	ori	zero,sp,-2043
    22d8:	491bc1b7          	lui	gp,0x491bc
    22dc:	d1418113          	addi	sp,gp,-748 # 0x491bbd14
    22e0:	cc416193          	ori	gp,sp,-828
    22e4:	82e0ed37          	lui	s10,0x82e0e
    22e8:	a090c213          	xori	tp,ra,-1527
    22ec:	79637113          	andi	sp,t1,1942
    22f0:	b5f006b7          	lui	a3,0xb5f00
    22f4:	97b16113          	ori	sp,sp,-1669
    22f8:	87e970b7          	lui	ra,0x87e97
    22fc:	07a37093          	andi	ra,t1,122
    2300:	04518093          	addi	ra,gp,69
    2304:	83706093          	ori	ra,zero,-1993
    2308:	1aa80137          	lui	sp,0x1aa80
    230c:	a5748113          	addi	sp,s1,-1449 # 0xffffffffe2747a57
    2310:	e0b08137          	lui	sp,0xe0b08
    2314:	61c713b7          	lui	t2,0x61c71
    2318:	71db7037          	lui	zero,0x71db7
    231c:	99e14313          	xori	t1,sp,-1634
    2320:	d060e493          	ori	s1,ra,-762
    2324:	967940b7          	lui	ra,0x96794
    2328:	00008263          	beqz	ra,0x232c
    232c:	0490036f          	jal	t1,0x2b74
    2330:	9925c113          	xori	sp,a1,-1646
    2334:	7d141337          	lui	t1,0x7d141
    2338:	7f5d0837          	lui	a6,0x7f5d0
    233c:	8c802137          	lui	sp,0x8c802
    2340:	4d3df4b7          	lui	s1,0x4d3df
    2344:	ca6e8193          	addi	gp,t4,-858 # 0xffffffffd375aca6
    2348:	6dae70b7          	lui	ra,0x6dae7
    234c:	6b982137          	lui	sp,0x6b982
    2350:	ba5030b7          	lui	ra,0xba503
    2354:	2033c337          	lui	t1,0x2033c
    2358:	669785b7          	lui	a1,0x66978
    235c:	75e41237          	lui	tp,0x75e41
    2360:	400022b7          	lui	t0,0x40002
    2364:	005282b3          	add	t0,t0,t0
    2368:	e902b283          	ld	t0,-368(t0) # 0x40001e90
    236c:	36809137          	lui	sp,0x36809
    2370:	7ec3a0b7          	lui	ra,0x7ec3a
    2374:	e6636793          	ori	a5,t1,-410
    2378:	531bd137          	lui	sp,0x531bd
    237c:	b711ed13          	ori	s10,gp,-1167
    2380:	b1300193          	li	gp,-1261
    2384:	1f434113          	xori	sp,t1,500
    2388:	d18a91b7          	lui	gp,0xd18a9
    238c:	ac33f137          	lui	sp,0xac33f
    2390:	0759e0b7          	lui	ra,0x759e
    2394:	01dc91b7          	lui	gp,0x1dc9
    2398:	2721c193          	xori	gp,gp,626
    239c:	9ee8a0b7          	lui	ra,0x9ee8a
    23a0:	0800f393          	andi	t2,ra,128
    23a4:	e8e04693          	xori	a3,zero,-370
    23a8:	ce717193          	andi	gp,sp,-793
    23ac:	148e1137          	lui	sp,0x148e1
    23b0:	d800e013          	ori	zero,ra,-640
    23b4:	c30dc193          	xori	gp,s11,-976
    23b8:	8a8e0113          	addi	sp,t3,-1880
    23bc:	c7bc1137          	lui	sp,0xc7bc1
    23c0:	00010293          	mv	t0,sp
    23c4:	48228063          	beq	t0,sp,0x2844
    23c8:	a360f193          	andi	gp,ra,-1482
    23cc:	979071b7          	lui	gp,0x97907
    23d0:	651591b7          	lui	gp,0x65159
    23d4:	cb810113          	addi	sp,sp,-840 # 0xffffffffc7bc0cb8
    23d8:	0b10f113          	andi	sp,ra,177
    23dc:	400020b7          	lui	ra,0x40002
    23e0:	001080b3          	add	ra,ra,ra
    23e4:	e900b003          	ld	zero,-368(ra) # 0x40001e90
    23e8:	ee41c113          	xori	sp,gp,-284
    23ec:	a28ab137          	lui	sp,0xa28ab
    23f0:	49234693          	xori	a3,t1,1170
    23f4:	06d54137          	lui	sp,0x6d54
    23f8:	05d681b7          	lui	gp,0x5d68
    23fc:	ae296013          	ori	zero,s2,-1310
    2400:	86016193          	ori	gp,sp,-1952
    2404:	ea3b6093          	ori	ra,s6,-349
    2408:	400020b7          	lui	ra,0x40002
    240c:	001080b3          	add	ra,ra,ra
    2410:	e870b823          	sd	t2,-368(ra) # 0x40001e90
    2414:	3c50e113          	ori	sp,ra,965
    2418:	31cb90b7          	lui	ra,0x31cb9
    241c:	3ad0f193          	andi	gp,ra,941
    2420:	6f017093          	andi	ra,sp,1776
    2424:	2e014593          	xori	a1,sp,736
    2428:	1d114193          	xori	gp,sp,465
    242c:	6affe0b7          	lui	ra,0x6affe
    2430:	1651e193          	ori	gp,gp,357
    2434:	400022b7          	lui	t0,0x40002
    2438:	005282b3          	add	t0,t0,t0
    243c:	e812b823          	sd	ra,-368(t0) # 0x40001e90
    2440:	1ec07193          	andi	gp,zero,492
    2444:	b46c3137          	lui	sp,0xb46c3
    2448:	39e291b7          	lui	gp,0x39e29
    244c:	b021c013          	xori	zero,gp,-1278
    2450:	00018113          	mv	sp,gp
    2454:	d43102e3          	beq	sp,gp,0x2198
    2458:	b651e193          	ori	gp,gp,-1179
    245c:	400021b7          	lui	gp,0x40002
    2460:	003181b3          	add	gp,gp,gp
    2464:	e811b823          	sd	ra,-368(gp) # 0x40001e90
    2468:	56fe3137          	lui	sp,0x56fe3
    246c:	7280c113          	xori	sp,ra,1832
    2470:	21715137          	lui	sp,0x21715
    2474:	bd1b7237          	lui	tp,0xbd1b7
    2478:	2abaf193          	andi	gp,s5,683
    247c:	13b95137          	lui	sp,0x13b95
    2480:	c32ce137          	lui	sp,0xc32ce
    2484:	84d011b7          	lui	gp,0x84d01
    2488:	4aa590b7          	lui	ra,0x4aa59
    248c:	2712a0b7          	lui	ra,0x2712a
    2490:	5ea42037          	lui	zero,0x5ea42
    2494:	4cbaa0b7          	lui	ra,0x4cbaa
    2498:	91400337          	lui	t1,0x91400
    249c:	acab80b7          	lui	ra,0xacab8
    24a0:	08702137          	lui	sp,0x8702
    24a4:	e59e01b7          	lui	gp,0xe59e0
    24a8:	57e17193          	andi	gp,sp,1406
    24ac:	f7f742b7          	lui	t0,0xf7f74
    24b0:	40002337          	lui	t1,0x40002
    24b4:	00630333          	add	t1,t1,t1
    24b8:	e8133823          	sd	ra,-368(t1) # 0x40001e90
    24bc:	723530b7          	lui	ra,0x72353
    24c0:	af7340b7          	lui	ra,0xaf734
    24c4:	8d01c113          	xori	sp,gp,-1840
    24c8:	1846f113          	andi	sp,a3,388
    24cc:	00030293          	mv	t0,t1
    24d0:	d46284e3          	beq	t0,t1,0x2218
    24d4:	400022b7          	lui	t0,0x40002
    24d8:	005282b3          	add	t0,t0,t0
    24dc:	e832b423          	sd	gp,-376(t0) # 0x40001e88
    24e0:	6c2451b7          	lui	gp,0x6c245
    24e4:	e77643b7          	lui	t2,0xe7764
    24e8:	ae317013          	andi	zero,sp,-1309
    24ec:	186ef237          	lui	tp,0x186ef
    24f0:	29c841b7          	lui	gp,0x29c84
    24f4:	7c2a10b7          	lui	ra,0x7c2a1
    24f8:	7488f093          	andi	ra,a7,1864
    24fc:	d2317093          	andi	ra,sp,-733
    2500:	27230093          	addi	ra,t1,626
    2504:	f4c3f193          	andi	gp,t2,-180
    2508:	f5608113          	addi	sp,ra,-170 # 0x7c2a0f56
    250c:	1499d0b7          	lui	ra,0x1499d
    2510:	1f884137          	lui	sp,0x1f884
    2514:	400021b7          	lui	gp,0x40002
    2518:	003181b3          	add	gp,gp,gp
    251c:	e831b823          	sd	gp,-368(gp) # 0x40001e90
    2520:	0455a0b7          	lui	ra,0x455a
    2524:	8b0db1b7          	lui	gp,0x8b0db
    2528:	27c14393          	xori	t2,sp,636
    252c:	a4b0c093          	xori	ra,ra,-1461
    2530:	a6a3a3b7          	lui	t2,0xa6a3a
    2534:	65464393          	xori	t2,a2,1620
    2538:	0ec7d337          	lui	t1,0xec7d
    253c:	43414113          	xori	sp,sp,1076
    2540:	9fc441b7          	lui	gp,0x9fc44
    2544:	84118093          	addi	ra,gp,-1983 # 0xffffffff9fc43841
    2548:	df6cf137          	lui	sp,0xdf6cf
    254c:	222fd137          	lui	sp,0x222fd
    2550:	86b20093          	addi	ra,tp,-1941 # 0x186ee86b
    2554:	5b51c513          	xori	a0,gp,1461
    2558:	384a7037          	lui	zero,0x384a7
    255c:	48228463          	beq	t0,sp,0x29e4
    2560:	4840016f          	jal	sp,0x29e4
    2564:	aea1f113          	andi	sp,gp,-1302
    2568:	40002137          	lui	sp,0x40002
    256c:	00210133          	add	sp,sp,sp
    2570:	e8313823          	sd	gp,-368(sp) # 0x40001e90
    2574:	381a91b7          	lui	gp,0x381a9
    2578:	1d817313          	andi	t1,sp,472
    257c:	0634c093          	xori	ra,s1,99
    2580:	88118913          	addi	s2,gp,-1919 # 0x381a8881
    2584:	4c95deb7          	lui	t4,0x4c95d
    2588:	e42641b7          	lui	gp,0xe4264
    258c:	9e214113          	xori	sp,sp,-1566
    2590:	3bb7b037          	lui	zero,0x3bb7b
    2594:	5d4ae3b7          	lui	t2,0x5d4ae
    2598:	3760e113          	ori	sp,ra,886
    259c:	e191c113          	xori	sp,gp,-487
    25a0:	400021b7          	lui	gp,0x40002
    25a4:	003181b3          	add	gp,gp,gp
    25a8:	e841b423          	sd	tp,-376(gp) # 0x40001e88
    25ac:	0b411137          	lui	sp,0xb411
    25b0:	fcc2e437          	lui	s0,0xfcc2e
    25b4:	8e927013          	andi	zero,tp,-1815
    25b8:	08f2c093          	xori	ra,t0,143
    25bc:	318c9337          	lui	t1,0x318c9
    25c0:	68f1c113          	xori	sp,gp,1679
    25c4:	5a8350b7          	lui	ra,0x5a835
    25c8:	0663e093          	ori	ra,t2,102
    25cc:	e2017193          	andi	gp,sp,-480
    25d0:	400020b7          	lui	ra,0x40002
    25d4:	001080b3          	add	ra,ra,ra
    25d8:	e900b203          	ld	tp,-368(ra) # 0x40001e90
    25dc:	400021b7          	lui	gp,0x40002
    25e0:	003181b3          	add	gp,gp,gp
    25e4:	e881b103          	ld	sp,-376(gp) # 0x40001e88
    25e8:	71f290b7          	lui	ra,0x71f29
    25ec:	18fa11b7          	lui	gp,0x18fa1
    25f0:	aae76337          	lui	t1,0xaae76
    25f4:	9ef26693          	ori	a3,tp,-1553
    25f8:	ab00c113          	xori	sp,ra,-1360
    25fc:	400021b7          	lui	gp,0x40002
    2600:	003181b3          	add	gp,gp,gp
    2604:	e801b423          	sd	zero,-376(gp) # 0x40001e88
    2608:	46118263          	beq	gp,ra,0x2a6c
    260c:	460002ef          	jal	t0,0x2a6c
    2610:	80527193          	andi	gp,tp,-2043
    2614:	3160e113          	ori	sp,ra,790
    2618:	8fa08013          	addi	zero,ra,-1798 # 0x71f288fa
    261c:	33e7c0b7          	lui	ra,0x33e7c
    2620:	5e41c093          	xori	ra,gp,1508
    2624:	1bd38137          	lui	sp,0x1bd38
    2628:	6fe38393          	addi	t2,t2,1790 # 0x5d4ae6fe
    262c:	6e2d51b7          	lui	gp,0x6e2d5
    2630:	c517c113          	xori	sp,a5,-943
    2634:	f7718193          	addi	gp,gp,-137 # 0x6e2d4f77
    2638:	b8006093          	ori	ra,zero,-1152
    263c:	e99c50b7          	lui	ra,0xe99c5
    2640:	cc316393          	ori	t2,sp,-829
    2644:	c2638113          	addi	sp,t2,-986
    2648:	c881e193          	ori	gp,gp,-888
    264c:	84748113          	addi	sp,s1,-1977 # 0x4d3de847
    2650:	f4be4137          	lui	sp,0xf4be4
    2654:	40002137          	lui	sp,0x40002
    2658:	00210133          	add	sp,sp,sp
    265c:	e9013183          	ld	gp,-368(sp) # 0x40001e90
    2660:	dd13c337          	lui	t1,0xdd13c
    2664:	7c937013          	andi	zero,t1,1993
    2668:	87a10393          	addi	t2,sp,-1926
    266c:	3f50c013          	xori	zero,ra,1013
    2670:	806b8237          	lui	tp,0x806b8
    2674:	653e6337          	lui	t1,0x653e6
    2678:	40002e37          	lui	t3,0x40002
    267c:	01ce0e33          	add	t3,t3,t3
    2680:	e87e3423          	sd	t2,-376(t3) # 0x40001e88
    2684:	da4f0093          	addi	ra,t5,-604 # 0x34861da4
    2688:	58118463          	beq	gp,ra,0x2c10
    268c:	584001ef          	jal	gp,0x2c10
    2690:	2fa5d0b7          	lui	ra,0x2fa5d
    2694:	689f5137          	lui	sp,0x689f5
    2698:	40002337          	lui	t1,0x40002
    269c:	00630333          	add	t1,t1,t1
    26a0:	e8833083          	ld	ra,-376(t1) # 0x40001e88
    26a4:	a92890b7          	lui	ra,0xa9289
    26a8:	400021b7          	lui	gp,0x40002
    26ac:	003181b3          	add	gp,gp,gp
    26b0:	e901b303          	ld	t1,-368(gp) # 0x40001e90
    26b4:	56914793          	xori	a5,sp,1385
    26b8:	1d6c21b7          	lui	gp,0x1d6c2
    26bc:	d160c313          	xori	t1,ra,-746
    26c0:	6bf431b7          	lui	gp,0x6bf43
    26c4:	65438093          	addi	ra,t2,1620
    26c8:	1627e1b7          	lui	gp,0x1627e
    26cc:	73008193          	addi	gp,ra,1840 # 0xffffffffa9289730
    26d0:	62c84037          	lui	zero,0x62c84
    26d4:	6fe14137          	lui	sp,0x6fe14
    26d8:	51d0f093          	andi	ra,ra,1309
    26dc:	cda84037          	lui	zero,0xcda84
    26e0:	400020b7          	lui	ra,0x40002
    26e4:	001080b3          	add	ra,ra,ra
    26e8:	e880b083          	ld	ra,-376(ra) # 0x40001e88
    26ec:	8ef0c193          	xori	gp,ra,-1809
    26f0:	c9f0c393          	xori	t2,ra,-865
    26f4:	40002137          	lui	sp,0x40002
    26f8:	00210133          	add	sp,sp,sp
    26fc:	e9013083          	ld	ra,-368(sp) # 0x40001e90
    2700:	400025b7          	lui	a1,0x40002
    2704:	00b585b3          	add	a1,a1,a1
    2708:	e905b183          	ld	gp,-368(a1) # 0x40001e90
    270c:	4bc24313          	xori	t1,tp,1212
    2710:	e9ea21b7          	lui	gp,0xe9ea2
    2714:	b82306e3          	beq	t1,sp,0x22a0
    2718:	b89ff46f          	jal	s0,0x22a0
    271c:	8a417113          	andi	sp,sp,-1884
    2720:	23e18693          	addi	a3,gp,574 # 0xffffffffe9ea223e
    2724:	09416193          	ori	gp,sp,148
    2728:	5d60e093          	ori	ra,ra,1494
    272c:	7aa17193          	andi	gp,sp,1962
    2730:	01a20193          	addi	gp,tp,26 # 0xffffffff806b801a
    2734:	5d19f0b7          	lui	ra,0x5d19f
    2738:	40002137          	lui	sp,0x40002
    273c:	00210133          	add	sp,sp,sp
    2740:	e8213823          	sd	sp,-368(sp) # 0x40001e90
    2744:	5d8a11b7          	lui	gp,0x5d8a1
    2748:	5b146137          	lui	sp,0x5b146
    274c:	0282e213          	ori	tp,t0,40
    2750:	123c31b7          	lui	gp,0x123c3
    2754:	0e30c113          	xori	sp,ra,227
    2758:	6fa1c113          	xori	sp,gp,1786
    275c:	3fab0193          	addi	gp,s6,1018
    2760:	73016193          	ori	gp,sp,1840
    2764:	84ca0137          	lui	sp,0x84ca0
    2768:	0d707337          	lui	t1,0xd707
    276c:	40002137          	lui	sp,0x40002
    2770:	00210133          	add	sp,sp,sp
    2774:	e9013a83          	ld	s5,-368(sp) # 0x40001e90
    2778:	fa434193          	xori	gp,t1,-92
    277c:	8bd0cc13          	xori	s8,ra,-1859
    2780:	2ac0f093          	andi	ra,ra,684
    2784:	36510113          	addi	sp,sp,869
    2788:	a650e1b7          	lui	gp,0xa650e
    278c:	14a16113          	ori	sp,sp,330
    2790:	a5d20093          	addi	ra,tp,-1443 # 0xfffffffffffffa5d
    2794:	ee1f8337          	lui	t1,0xee1f8
    2798:	ac8f0137          	lui	sp,0xac8f0
    279c:	e050e193          	ori	gp,ra,-507
    27a0:	0f008137          	lui	sp,0xf008
    27a4:	039290b7          	lui	ra,0x3929
    27a8:	00010393          	mv	t2,sp
    27ac:	ca2386e3          	beq	t2,sp,0x2458
    27b0:	40002437          	lui	s0,0x40002
    27b4:	00840433          	add	s0,s0,s0
    27b8:	e8843303          	ld	t1,-376(s0) # 0x40001e88
    27bc:	aa11c113          	xori	sp,gp,-1375
    27c0:	87718113          	addi	sp,gp,-1929 # 0xffffffffa650d877
    27c4:	18d30337          	lui	t1,0x18d30
    27c8:	e5d10793          	addi	a5,sp,-419 # 0xf007e5d
    27cc:	c2e17113          	andi	sp,sp,-978
    27d0:	400021b7          	lui	gp,0x40002
    27d4:	003181b3          	add	gp,gp,gp
    27d8:	e831b823          	sd	gp,-368(gp) # 0x40001e90
    27dc:	e67281b7          	lui	gp,0xe6728
    27e0:	6d4972b7          	lui	t0,0x6d497
    27e4:	40002137          	lui	sp,0x40002
    27e8:	00210133          	add	sp,sp,sp
    27ec:	e9013003          	ld	zero,-368(sp) # 0x40001e90
    27f0:	dcd7f1b7          	lui	gp,0xdcd7f
    27f4:	4952f693          	andi	a3,t0,1173
    27f8:	c750f293          	andi	t0,ra,-907
    27fc:	24408193          	addi	gp,ra,580 # 0x3929244
    2800:	7d71e193          	ori	gp,gp,2007
    2804:	534ca137          	lui	sp,0x534ca
    2808:	b860c013          	xori	zero,ra,-1146
    280c:	572f21b7          	lui	gp,0x572f2
    2810:	6c8c5037          	lui	zero,0x6c8c5
    2814:	4d6a21b7          	lui	gp,0x4d6a2
    2818:	ddd9f0b7          	lui	ra,0xddd9f
    281c:	ae54e137          	lui	sp,0xae54e
    2820:	1b2c50b7          	lui	ra,0x1b2c5
    2824:	57920393          	addi	t2,tp,1401 # 0x579
    2828:	9cd34113          	xori	sp,t1,-1587
    282c:	509d33b7          	lui	t2,0x509d3
    2830:	865aa037          	lui	zero,0x865aa
    2834:	bde9d137          	lui	sp,0xbde9d
    2838:	75f0e093          	ori	ra,ra,1887
    283c:	00018313          	mv	t1,gp
    2840:	ae3308e3          	beq	t1,gp,0x2330
    2844:	47010293          	addi	t0,sp,1136 # 0xffffffffbde9d470
    2848:	d1041137          	lui	sp,0xd1041
    284c:	a363f113          	andi	sp,t2,-1482
    2850:	e4110193          	addi	gp,sp,-447 # 0xffffffffd1040e41
    2854:	98014193          	xori	gp,sp,-1664
    2858:	74d52337          	lui	t1,0x74d52
    285c:	85e1c313          	xori	t1,gp,-1954
    2860:	cef1c193          	xori	gp,gp,-785
    2864:	1539c2b7          	lui	t0,0x1539c
    2868:	ae3d0337          	lui	t1,0xae3d0
    286c:	a170c393          	xori	t2,ra,-1513
    2870:	438a51b7          	lui	gp,0x438a5
    2874:	f6b8c137          	lui	sp,0xf6b8c
    2878:	45998093          	addi	ra,s3,1113 # 0xfffffffffff21459
    287c:	5a0de0b7          	lui	ra,0x5a0de
    2880:	ad1aa1b7          	lui	gp,0xad1aa
    2884:	40002137          	lui	sp,0x40002
    2888:	00210133          	add	sp,sp,sp
    288c:	e8413423          	sd	tp,-376(sp) # 0x40001e88
    2890:	13d41137          	lui	sp,0x13d41
    2894:	b120f013          	andi	zero,ra,-1262
    2898:	0bd5c337          	lui	t1,0xbd5c
    289c:	7090c193          	xori	gp,ra,1801
    28a0:	c5526113          	ori	sp,tp,-939
    28a4:	43be21b7          	lui	gp,0x43be2
    28a8:	e5fa93b7          	lui	t2,0xe5fa9
    28ac:	f14e71b7          	lui	gp,0xf14e7
    28b0:	5b3e00b7          	lui	ra,0x5b3e0
    28b4:	ee50c113          	xori	sp,ra,-283
    28b8:	d4110ce3          	beq	sp,ra,0x2610
    28bc:	d55ff1ef          	jal	gp,0x2610
    28c0:	40002137          	lui	sp,0x40002
    28c4:	00210133          	add	sp,sp,sp
    28c8:	e9013103          	ld	sp,-368(sp) # 0x40001e90
    28cc:	cb218113          	addi	sp,gp,-846 # 0xfffffffff14e6cb2
    28d0:	2f76fcb7          	lui	s9,0x2f76f
    28d4:	2e31c613          	xori	a2,gp,739
    28d8:	4dd1f193          	andi	gp,gp,1245
    28dc:	40002337          	lui	t1,0x40002
    28e0:	00630333          	add	t1,t1,t1
    28e4:	e9033303          	ld	t1,-368(t1) # 0x40001e90
    28e8:	bdebd1b7          	lui	gp,0xbdebd
    28ec:	26a83037          	lui	zero,0x26a83
    28f0:	ce41e113          	ori	sp,gp,-796
    28f4:	873b71b7          	lui	gp,0x873b7
    28f8:	400026b7          	lui	a3,0x40002
    28fc:	00d686b3          	add	a3,a3,a3
    2900:	e896b423          	sd	s1,-376(a3) # 0x40001e88
    2904:	97ce32b7          	lui	t0,0x97ce3
    2908:	6ff16093          	ori	ra,sp,1791
    290c:	1471e093          	ori	ra,gp,327
    2910:	176ac013          	xori	zero,s5,374
    2914:	40002137          	lui	sp,0x40002
    2918:	00210133          	add	sp,sp,sp
    291c:	e8313423          	sd	gp,-376(sp) # 0x40001e88
    2920:	009594b7          	lui	s1,0x959
    2924:	6121c093          	xori	ra,gp,1554
    2928:	e461e113          	ori	sp,gp,-442
    292c:	d1402137          	lui	sp,0xd1402
    2930:	4d817113          	andi	sp,sp,1240
    2934:	93714093          	xori	ra,sp,-1737
    2938:	00030193          	mv	gp,t1
    293c:	b8618ce3          	beq	gp,t1,0x24d4
    2940:	4327f1b7          	lui	gp,0x4327f
    2944:	a61337b7          	lui	a5,0xa6133
    2948:	b8839237          	lui	tp,0xb8839
    294c:	77927113          	andi	sp,tp,1913
    2950:	40002337          	lui	t1,0x40002
    2954:	00630333          	add	t1,t1,t1
    2958:	e8833183          	ld	gp,-376(t1) # 0x40001e88
    295c:	400021b7          	lui	gp,0x40002
    2960:	003181b3          	add	gp,gp,gp
    2964:	e901b103          	ld	sp,-368(gp) # 0x40001e90
    2968:	30092137          	lui	sp,0x30092
    296c:	d778f137          	lui	sp,0xd778f
    2970:	6b808113          	addi	sp,ra,1720 # 0x5b3e06b8
    2974:	f5c08113          	addi	sp,ra,-164
    2978:	df58a1b7          	lui	gp,0xdf58a
    297c:	400021b7          	lui	gp,0x40002
    2980:	003181b3          	add	gp,gp,gp
    2984:	e881b083          	ld	ra,-376(gp) # 0x40001e88
    2988:	5ec3e1b7          	lui	gp,0x5ec3e
    298c:	62508193          	addi	gp,ra,1573
    2990:	2761c0b7          	lui	ra,0x2761c
    2994:	40002137          	lui	sp,0x40002
    2998:	00210133          	add	sp,sp,sp
    299c:	e8613823          	sd	t1,-368(sp) # 0x40001e90
    29a0:	e5c14213          	xori	tp,sp,-420
    29a4:	43770113          	addi	sp,a4,1079
    29a8:	61a14193          	xori	gp,sp,1562
    29ac:	2685c1b7          	lui	gp,0x2685c
    29b0:	a7310093          	addi	ra,sp,-1421
    29b4:	98e3f0b7          	lui	ra,0x98e3f
    29b8:	bbc873b7          	lui	t2,0xbbc87
    29bc:	ea308093          	addi	ra,ra,-349 # 0xffffffff98e3eea3
    29c0:	cf58e1b7          	lui	gp,0xcf58e
    29c4:	9ff151b7          	lui	gp,0x9ff15
    29c8:	807e85b7          	lui	a1,0x807e8
    29cc:	61ba77b7          	lui	a5,0x61ba7
    29d0:	0851f113          	andi	sp,gp,133
    29d4:	19c18093          	addi	ra,gp,412 # 0xffffffff9ff1519c
    29d8:	9acd91b7          	lui	gp,0x9acd9
    29dc:	00008093          	mv	ra,ra
    29e0:	ca1088e3          	beq	ra,ra,0x2690
    29e4:	432c84b7          	lui	s1,0x432c8
    29e8:	400021b7          	lui	gp,0x40002
    29ec:	003181b3          	add	gp,gp,gp
    29f0:	e851b423          	sd	t0,-376(gp) # 0x40001e88
    29f4:	21704093          	xori	ra,zero,535
    29f8:	2496f1b7          	lui	gp,0x2496f
    29fc:	aba14093          	xori	ra,sp,-1350
    2a00:	5a018113          	addi	sp,gp,1440 # 0x2496f5a0
    2a04:	102af137          	lui	sp,0x102af
    2a08:	50e14137          	lui	sp,0x50e14
    2a0c:	400020b7          	lui	ra,0x40002
    2a10:	001080b3          	add	ra,ra,ra
    2a14:	e900b303          	ld	t1,-368(ra) # 0x40001e90
    2a18:	40002137          	lui	sp,0x40002
    2a1c:	00210133          	add	sp,sp,sp
    2a20:	e8113423          	sd	ra,-376(sp) # 0x40001e88
    2a24:	5774e393          	ori	t2,s1,1399
    2a28:	536ad1b7          	lui	gp,0x536ad
    2a2c:	3ca1c193          	xori	gp,gp,970
    2a30:	b0d66137          	lui	sp,0xb0d66
    2a34:	63a17093          	andi	ra,sp,1594
    2a38:	8f41c013          	xori	zero,gp,-1804
    2a3c:	2e63e793          	ori	a5,t2,742
    2a40:	40002237          	lui	tp,0x40002
    2a44:	00420233          	add	tp,tp,tp
    2a48:	e8823103          	ld	sp,-376(tp) # 0x40001e88
    2a4c:	f6c01337          	lui	t1,0xf6c01
    2a50:	400021b7          	lui	gp,0x40002
    2a54:	003181b3          	add	gp,gp,gp
    2a58:	e901b103          	ld	sp,-368(gp) # 0x40001e90
    2a5c:	8801c113          	xori	sp,gp,-1920
    2a60:	e6838193          	addi	gp,t2,-408 # 0xffffffffbbc86e68
    2a64:	00748263          	beq	s1,t2,0x2a68
    2a68:	215001ef          	jal	gp,0x347c
    2a6c:	da514093          	xori	ra,sp,-603
    2a70:	5f01c193          	xori	gp,gp,1520
    2a74:	ff5db137          	lui	sp,0xff5db
    2a78:	4e71f293          	andi	t0,gp,1255
    2a7c:	69d1c193          	xori	gp,gp,1693
    2a80:	3885d937          	lui	s2,0x3885d
    2a84:	5a3c00b7          	lui	ra,0x5a3c0
    2a88:	940701b7          	lui	gp,0x94070
    2a8c:	40002137          	lui	sp,0x40002
    2a90:	00210133          	add	sp,sp,sp
    2a94:	e8813103          	ld	sp,-376(sp) # 0x40001e88
    2a98:	a43381b7          	lui	gp,0xa4338
    2a9c:	f0357037          	lui	zero,0xf0357
    2aa0:	53c18013          	addi	zero,gp,1340 # 0xffffffffa433853c
    2aa4:	0e27e193          	ori	gp,a5,226
    2aa8:	d085d2b7          	lui	t0,0xd085d
    2aac:	56180313          	addi	t1,a6,1377 # 0x7f5d0561
    2ab0:	28d0e313          	ori	t1,ra,653
    2ab4:	bfea2037          	lui	zero,0xbfea2
    2ab8:	9c91c113          	xori	sp,gp,-1591
    2abc:	aec88137          	lui	sp,0xaec88
    2ac0:	ab526493          	ori	s1,tp,-1355
    2ac4:	49a7f113          	andi	sp,a5,1178
    2ac8:	3830e313          	ori	t1,ra,899
    2acc:	cfc831b7          	lui	gp,0xcfc83
    2ad0:	527761b7          	lui	gp,0x52776
    2ad4:	f2fb2137          	lui	sp,0xf2fb2
    2ad8:	400021b7          	lui	gp,0x40002
    2adc:	003181b3          	add	gp,gp,gp
    2ae0:	e901b183          	ld	gp,-368(gp) # 0x40001e90
    2ae4:	4bc10013          	addi	zero,sp,1212 # 0xfffffffff2fb24bc
    2ae8:	00000013          	nop
    2aec:	dc000ae3          	beqz	zero,0x28c0
    2af0:	a08c90b7          	lui	ra,0xa08c9
    2af4:	400021b7          	lui	gp,0x40002
    2af8:	003181b3          	add	gp,gp,gp
    2afc:	e801b423          	sd	zero,-376(gp) # 0x40001e88
    2b00:	18b10093          	addi	ra,sp,395
    2b04:	8ce2b137          	lui	sp,0x8ce2b
    2b08:	8b87e0b7          	lui	ra,0x8b87e
    2b0c:	da918193          	addi	gp,gp,-599
    2b10:	2f43f393          	andi	t2,t2,756
    2b14:	1d90f193          	andi	gp,ra,473
    2b18:	ae90c093          	xori	ra,ra,-1303
    2b1c:	82b79137          	lui	sp,0x82b79
    2b20:	2b908093          	addi	ra,ra,697 # 0xffffffff8b87e2b9
    2b24:	8f904113          	xori	sp,zero,-1799
    2b28:	a6e36137          	lui	sp,0xa6e36
    2b2c:	ca8c24b7          	lui	s1,0xca8c2
    2b30:	eb74e0b7          	lui	ra,0xeb74e
    2b34:	b3431137          	lui	sp,0xb3431
    2b38:	17e00137          	lui	sp,0x17e00
    2b3c:	0800c193          	xori	gp,ra,128
    2b40:	40002137          	lui	sp,0x40002
    2b44:	00210133          	add	sp,sp,sp
    2b48:	e8813783          	ld	a5,-376(sp) # 0x40001e88
    2b4c:	40002137          	lui	sp,0x40002
    2b50:	00210133          	add	sp,sp,sp
    2b54:	e9013183          	ld	gp,-368(sp) # 0x40001e90
    2b58:	c480f593          	andi	a1,ra,-952
    2b5c:	e8bc91b7          	lui	gp,0xe8bc9
    2b60:	51834093          	xori	ra,t1,1304
    2b64:	c6c17093          	andi	ra,sp,-916
    2b68:	a7516193          	ori	gp,sp,-1419
    2b6c:	00008093          	mv	ra,ra
    2b70:	9e108ae3          	beq	ra,ra,0x2564
    2b74:	7f917193          	andi	gp,sp,2041
    2b78:	9441c193          	xori	gp,gp,-1724
    2b7c:	40002137          	lui	sp,0x40002
    2b80:	00210133          	add	sp,sp,sp
    2b84:	e9013103          	ld	sp,-368(sp) # 0x40001e90
    2b88:	5e716113          	ori	sp,sp,1511
    2b8c:	7bf36113          	ori	sp,t1,1983
    2b90:	13f0f093          	andi	ra,ra,319
    2b94:	3caa80b7          	lui	ra,0x3caa8
    2b98:	742e1137          	lui	sp,0x742e1
    2b9c:	70a7c1b7          	lui	gp,0x70a7c
    2ba0:	40002137          	lui	sp,0x40002
    2ba4:	00210133          	add	sp,sp,sp
    2ba8:	e8213423          	sd	sp,-376(sp) # 0x40001e88
    2bac:	7741c893          	xori	a7,gp,1908
    2bb0:	63d06513          	ori	a0,zero,1597
    2bb4:	400020b7          	lui	ra,0x40002
    2bb8:	001080b3          	add	ra,ra,ra
    2bbc:	e840b823          	sd	tp,-368(ra) # 0x40001e90
    2bc0:	9d108193          	addi	gp,ra,-1583
    2bc4:	8bb0c393          	xori	t2,ra,-1861
    2bc8:	bccc6a93          	ori	s5,s8,-1076
    2bcc:	40002237          	lui	tp,0x40002
    2bd0:	00420233          	add	tp,tp,tp
    2bd4:	e8823083          	ld	ra,-376(tp) # 0x40001e88
    2bd8:	bd44a437          	lui	s0,0xbd44a
    2bdc:	ff226193          	ori	gp,tp,-14
    2be0:	57f6d5b7          	lui	a1,0x57f6d
    2be4:	eb61e093          	ori	ra,gp,-330
    2be8:	4723f093          	andi	ra,t2,1138
    2bec:	3c9d3237          	lui	tp,0x3c9d3
    2bf0:	ca60e193          	ori	gp,ra,-858
    2bf4:	81a5b137          	lui	sp,0x81a5b
    2bf8:	a4717113          	andi	sp,sp,-1465
    2bfc:	2fd36093          	ori	ra,t1,765
    2c00:	f73ef0b7          	lui	ra,0xf73ef
    2c04:	4b77f0b7          	lui	ra,0x4b77f
    2c08:	00010793          	mv	a5,sp
    2c0c:	ee2782e3          	beq	a5,sp,0x2af0
    2c10:	3f500113          	li	sp,1013
    2c14:	395386b7          	lui	a3,0x39538
    2c18:	400020b7          	lui	ra,0x40002
    2c1c:	001080b3          	add	ra,ra,ra
    2c20:	e810b823          	sd	ra,-368(ra) # 0x40001e90
    2c24:	34937113          	andi	sp,t1,841
    2c28:	1abcf113          	andi	sp,s9,427
    2c2c:	eb3b6137          	lui	sp,0xeb3b6
    2c30:	a7808013          	addi	zero,ra,-1416
    2c34:	0eb1e393          	ori	t2,gp,235
    2c38:	00c8d137          	lui	sp,0xc8d
    2c3c:	3420e213          	ori	tp,ra,834
    2c40:	6922f1b7          	lui	gp,0x6922f
    2c44:	400021b7          	lui	gp,0x40002
    2c48:	003181b3          	add	gp,gp,gp
    2c4c:	e821b823          	sd	sp,-368(gp) # 0x40001e90
    2c50:	56c440b7          	lui	ra,0x56c44
    2c54:	8820e693          	ori	a3,ra,-1918
    2c58:	061d1137          	lui	sp,0x61d1
    2c5c:	26b0f313          	andi	t1,ra,619
    2c60:	3ca1e113          	ori	sp,gp,970
    2c64:	2460e093          	ori	ra,ra,582
    2c68:	db1660b7          	lui	ra,0xdb166
    2c6c:	7a187137          	lui	sp,0x7a187
    2c70:	a335f393          	andi	t2,a1,-1485
    2c74:	00208263          	beq	ra,sp,0x2c78
    2c78:	f50ff1ef          	jal	gp,0x23c8
    2c7c:	28d38093          	addi	ra,t2,653
    2c80:	6a318193          	addi	gp,gp,1699
    2c84:	4074e0b7          	lui	ra,0x4074e
    2c88:	676aa0b7          	lui	ra,0x676aa
    2c8c:	1ed3c113          	xori	sp,t2,493
    2c90:	75320113          	addi	sp,tp,1875 # 0x3c9d3753
    2c94:	374880b7          	lui	ra,0x37488
    2c98:	e460f093          	andi	ra,ra,-442
    2c9c:	400026b7          	lui	a3,0x40002
    2ca0:	00d686b3          	add	a3,a3,a3
    2ca4:	e906b103          	ld	sp,-368(a3) # 0x40001e90
    2ca8:	93c54137          	lui	sp,0x93c54
    2cac:	13938093          	addi	ra,t2,313
    2cb0:	32620193          	addi	gp,tp,806 # 0x326
    2cb4:	d3d16193          	ori	gp,sp,-707
    2cb8:	5af9c137          	lui	sp,0x5af9c
    2cbc:	f85083b7          	lui	t2,0xf8508
    2cc0:	22f1c213          	xori	tp,gp,559
    2cc4:	400021b7          	lui	gp,0x40002
    2cc8:	003181b3          	add	gp,gp,gp
    2ccc:	e831b423          	sd	gp,-376(gp) # 0x40001e88
    2cd0:	68520113          	addi	sp,tp,1669 # 0x685
    2cd4:	d2b02337          	lui	t1,0xd2b02
    2cd8:	ebc24113          	xori	sp,tp,-324
    2cdc:	b39cf237          	lui	tp,0xb39cf
    2ce0:	0ce08193          	addi	gp,ra,206 # 0x374880ce
    2ce4:	9ec6c0b7          	lui	ra,0x9ec6c
    2ce8:	37417093          	andi	ra,sp,884
    2cec:	ffb1c593          	xori	a1,gp,-5
    2cf0:	51563137          	lui	sp,0x51563
    2cf4:	50017113          	andi	sp,sp,1280
    2cf8:	3878d0b7          	lui	ra,0x3878d
    2cfc:	5730c113          	xori	sp,ra,1395
    2d00:	08c7c237          	lui	tp,0x8c7c
    2d04:	79fe0337          	lui	t1,0x79fe0
    2d08:	a763f1b7          	lui	gp,0xa763f
    2d0c:	400023b7          	lui	t2,0x40002
    2d10:	007383b3          	add	t2,t2,t2
    2d14:	e813b423          	sd	ra,-376(t2) # 0x40001e88
    2d18:	3e110e63          	beq	sp,ra,0x3114
    2d1c:	3f80016f          	jal	sp,0x3114
    2d20:	2621f093          	andi	ra,gp,610
    2d24:	400021b7          	lui	gp,0x40002
    2d28:	003181b3          	add	gp,gp,gp
    2d2c:	e901b003          	ld	zero,-368(gp) # 0x40001e90
    2d30:	6d61c093          	xori	ra,gp,1750
    2d34:	c7b08193          	addi	gp,ra,-901 # 0x3878cc7b
    2d38:	acd78137          	lui	sp,0xacd78
    2d3c:	934b9137          	lui	sp,0x934b9
    2d40:	8cdf40b7          	lui	ra,0x8cdf4
    2d44:	400020b7          	lui	ra,0x40002
    2d48:	001080b3          	add	ra,ra,ra
    2d4c:	e880b083          	ld	ra,-376(ra) # 0x40001e88
    2d50:	91bd41b7          	lui	gp,0x91bd4
    2d54:	77fe31b7          	lui	gp,0x77fe3
    2d58:	0465f037          	lui	zero,0x465f
    2d5c:	b97000b7          	lui	ra,0xb9700
    2d60:	a103c113          	xori	sp,t2,-1520
    2d64:	c0a08013          	addi	zero,ra,-1014 # 0xffffffffb96ffc0a
    2d68:	400020b7          	lui	ra,0x40002
    2d6c:	001080b3          	add	ra,ra,ra
    2d70:	e830b823          	sd	gp,-368(ra) # 0x40001e90
    2d74:	58330313          	addi	t1,t1,1411 # 0x79fe0583
    2d78:	400020b7          	lui	ra,0x40002
    2d7c:	001080b3          	add	ra,ra,ra
    2d80:	e900b083          	ld	ra,-368(ra) # 0x40001e90
    2d84:	9ec1c137          	lui	sp,0x9ec1c
    2d88:	9ed090b7          	lui	ra,0x9ed09
    2d8c:	b25c51b7          	lui	gp,0xb25c5
    2d90:	77818213          	addi	tp,gp,1912 # 0xffffffffb25c5778
    2d94:	245700b7          	lui	ra,0x24570
    2d98:	c6908093          	addi	ra,ra,-919 # 0x2456fc69
    2d9c:	3a806093          	ori	ra,zero,936
    2da0:	1341c093          	xori	ra,gp,308
    2da4:	000d0113          	mv	sp,s10
    2da8:	7da10e63          	beq	sp,s10,0x3584
    2dac:	58f0f013          	andi	zero,ra,1423
    2db0:	e4016093          	ori	ra,sp,-448
    2db4:	61518193          	addi	gp,gp,1557
    2db8:	c2636113          	ori	sp,t1,-986
    2dbc:	66f2e093          	ori	ra,t0,1647
    2dc0:	b9d1f093          	andi	ra,gp,-1123
    2dc4:	f9ccc0b7          	lui	ra,0xf9ccc
    2dc8:	73f338b7          	lui	a7,0x73f33
    2dcc:	757df0b7          	lui	ra,0x757df
    2dd0:	4660f293          	andi	t0,ra,1126
    2dd4:	bbfd71b7          	lui	gp,0xbbfd7
    2dd8:	d45851b7          	lui	gp,0xd4585
    2ddc:	0779a037          	lui	zero,0x779a
    2de0:	cc80d0b7          	lui	ra,0xcc80d
    2de4:	45e3d337          	lui	t1,0x45e3d
    2de8:	c8c10193          	addi	gp,sp,-884 # 0xffffffff9ec1bc8c
    2dec:	4b1c31b7          	lui	gp,0x4b1c3
    2df0:	0f8240b7          	lui	ra,0xf824
    2df4:	d8f0e113          	ori	sp,ra,-625
    2df8:	6df1c113          	xori	sp,gp,1759
    2dfc:	89694293          	xori	t0,s2,-1898
    2e00:	2c6570b7          	lui	ra,0x2c657
    2e04:	cbd08093          	addi	ra,ra,-835 # 0x2c656cbd
    2e08:	d6cc5037          	lui	zero,0xd6cc5
    2e0c:	40002137          	lui	sp,0x40002
    2e10:	00210133          	add	sp,sp,sp
    2e14:	e9013203          	ld	tp,-368(sp) # 0x40001e90
    2e18:	e0cef137          	lui	sp,0xe0cef
    2e1c:	400021b7          	lui	gp,0x40002
    2e20:	003181b3          	add	gp,gp,gp
    2e24:	e881b183          	ld	gp,-376(gp) # 0x40001e88
    2e28:	51d6b1b7          	lui	gp,0x51d6b
    2e2c:	0d7f41b7          	lui	gp,0xd7f4
    2e30:	8e874313          	xori	t1,a4,-1816
    2e34:	91d04037          	lui	zero,0x91d04
    2e38:	6c0f8237          	lui	tp,0x6c0f8
    2e3c:	a3110193          	addi	gp,sp,-1487 # 0xffffffffe0ceea31
    2e40:	12ef80b7          	lui	ra,0x12ef8
    2e44:	b9c91337          	lui	t1,0xb9c91
    2e48:	08018c63          	beqz	gp,0x2ee0
    2e4c:	094001ef          	jal	gp,0x2ee0
    2e50:	05cff337          	lui	t1,0x5cff
    2e54:	40002137          	lui	sp,0x40002
    2e58:	00210133          	add	sp,sp,sp
    2e5c:	e8113423          	sd	ra,-376(sp) # 0x40001e88
    2e60:	7f828093          	addi	ra,t0,2040 # 0xffffffffd085d7f8
    2e64:	0be1c113          	xori	sp,gp,190
    2e68:	400023b7          	lui	t2,0x40002
    2e6c:	007383b3          	add	t2,t2,t2
    2e70:	e883b103          	ld	sp,-376(t2) # 0x40001e88
    2e74:	851d50b7          	lui	ra,0x851d5
    2e78:	d7e68137          	lui	sp,0xd7e68
    2e7c:	4b0b86b7          	lui	a3,0x4b0b8
    2e80:	7f714193          	xori	gp,sp,2039
    2e84:	40002137          	lui	sp,0x40002
    2e88:	00210133          	add	sp,sp,sp
    2e8c:	e8213423          	sd	sp,-376(sp) # 0x40001e88
    2e90:	400020b7          	lui	ra,0x40002
    2e94:	001080b3          	add	ra,ra,ra
    2e98:	e820b423          	sd	sp,-376(ra) # 0x40001e88
    2e9c:	f2704213          	xori	tp,zero,-217
    2ea0:	c7c0e193          	ori	gp,ra,-900
    2ea4:	95316193          	ori	gp,sp,-1709
    2ea8:	66b08113          	addi	sp,ra,1643
    2eac:	766650b7          	lui	ra,0x76665
    2eb0:	00e15137          	lui	sp,0xe15
    2eb4:	e54b7137          	lui	sp,0xe54b7
    2eb8:	d127d1b7          	lui	gp,0xd127d
    2ebc:	400027b7          	lui	a5,0x40002
    2ec0:	00f787b3          	add	a5,a5,a5
    2ec4:	e887b003          	ld	zero,-376(a5) # 0x40001e88
    2ec8:	6971c193          	xori	gp,gp,1687
    2ecc:	3da3e113          	ori	sp,t2,986
    2ed0:	deb2e093          	ori	ra,t0,-533
    2ed4:	59317213          	andi	tp,sp,1427
    2ed8:	7e208263          	beq	ra,sp,0x36bc
    2edc:	7e00026f          	jal	tp,0x36bc
    2ee0:	6ef17113          	andi	sp,sp,1775
    2ee4:	98dbe137          	lui	sp,0x98dbe
    2ee8:	00410113          	addi	sp,sp,4 # 0xffffffff98dbe004
    2eec:	6216d237          	lui	tp,0x6216d
    2ef0:	f2118113          	addi	sp,gp,-223 # 0xffffffffd127cf21
    2ef4:	e0410093          	addi	ra,sp,-508
    2ef8:	9d436337          	lui	t1,0x9d436
    2efc:	8a51d137          	lui	sp,0x8a51d
    2f00:	13016337          	lui	t1,0x13016
    2f04:	400021b7          	lui	gp,0x40002
    2f08:	003181b3          	add	gp,gp,gp
    2f0c:	e881b183          	ld	gp,-376(gp) # 0x40001e88
    2f10:	7c2132b7          	lui	t0,0x7c213
    2f14:	9866b3b7          	lui	t2,0x9866b
    2f18:	ed61a037          	lui	zero,0xed61a
    2f1c:	d9eba0b7          	lui	ra,0xd9eba
    2f20:	40002237          	lui	tp,0x40002
    2f24:	00420233          	add	tp,tp,tp
    2f28:	e8123423          	sd	ra,-376(tp) # 0x40001e88
    2f2c:	a0708093          	addi	ra,ra,-1529 # 0xffffffffd9eb9a07
    2f30:	32335bb7          	lui	s7,0x32335
    2f34:	dd037113          	andi	sp,t1,-560
    2f38:	c0e1b137          	lui	sp,0xc0e1b
    2f3c:	8e3b3137          	lui	sp,0x8e3b3
    2f40:	f6c0f193          	andi	gp,ra,-148
    2f44:	c4b2f113          	andi	sp,t0,-949
    2f48:	ff72cf13          	xori	t5,t0,-9
    2f4c:	24e34493          	xori	s1,t1,590
    2f50:	76d1f137          	lui	sp,0x76d1f
    2f54:	1ad0e793          	ori	a5,ra,429
    2f58:	d13571b7          	lui	gp,0xd1357
    2f5c:	f00830b7          	lui	ra,0xf0083
    2f60:	ef406393          	ori	t2,zero,-268
    2f64:	a17a80b7          	lui	ra,0xa17a8
    2f68:	31e731b7          	lui	gp,0x31e73
    2f6c:	aa328137          	lui	sp,0xaa328
    2f70:	00038313          	mv	t1,t2
    2f74:	34730c63          	beq	t1,t2,0x32cc
    2f78:	b0f670b7          	lui	ra,0xb0f67
    2f7c:	a54bf137          	lui	sp,0xa54bf
    2f80:	f17a60b7          	lui	ra,0xf17a6
    2f84:	400021b7          	lui	gp,0x40002
    2f88:	003181b3          	add	gp,gp,gp
    2f8c:	e881b203          	ld	tp,-376(gp) # 0x40001e88
    2f90:	dc508013          	addi	zero,ra,-571 # 0xfffffffff17a5dc5
    2f94:	423df7b7          	lui	a5,0x423df
    2f98:	05408113          	addi	sp,ra,84
    2f9c:	1771c113          	xori	sp,gp,375
    2fa0:	400022b7          	lui	t0,0x40002
    2fa4:	005282b3          	add	t0,t0,t0
    2fa8:	e902b183          	ld	gp,-368(t0) # 0x40001e90
    2fac:	9644b0b7          	lui	ra,0x9644b
    2fb0:	2371e093          	ori	ra,gp,567
    2fb4:	96610113          	addi	sp,sp,-1690 # 0xffffffffa54be966
    2fb8:	40002337          	lui	t1,0x40002
    2fbc:	00630333          	add	t1,t1,t1
    2fc0:	e8833383          	ld	t2,-376(t1) # 0x40001e88
    2fc4:	1b636193          	ori	gp,t1,438
    2fc8:	eb304093          	xori	ra,zero,-333
    2fcc:	c93740b7          	lui	ra,0xc9374
    2fd0:	e3d0c093          	xori	ra,ra,-451
    2fd4:	11508313          	addi	t1,ra,277 # 0xffffffffc9374115
    2fd8:	95c3ceb7          	lui	t4,0x95c3c
    2fdc:	56d1f213          	andi	tp,gp,1389
    2fe0:	4ac43137          	lui	sp,0x4ac43
    2fe4:	f5318013          	addi	zero,gp,-173
    2fe8:	88318113          	addi	sp,gp,-1917
    2fec:	40002137          	lui	sp,0x40002
    2ff0:	00210133          	add	sp,sp,sp
    2ff4:	e8313823          	sd	gp,-368(sp) # 0x40001e90
    2ff8:	c83082e3          	beq	ra,gp,0x2c7c
    2ffc:	c81ff1ef          	jal	gp,0x2c7c
    3000:	400bb0b7          	lui	ra,0x400bb
    3004:	51de6137          	lui	sp,0x51de6
    3008:	c8c0e093          	ori	ra,ra,-884
    300c:	2151d137          	lui	sp,0x2151d
    3010:	ba414193          	xori	gp,sp,-1116
    3014:	04617113          	andi	sp,sp,70
    3018:	d540f213          	andi	tp,ra,-684
    301c:	c98142b7          	lui	t0,0xc9814
    3020:	0a31c313          	xori	t1,gp,163
    3024:	0aeef193          	andi	gp,t4,174
    3028:	40002137          	lui	sp,0x40002
    302c:	00210133          	add	sp,sp,sp
    3030:	e8713423          	sd	t2,-376(sp) # 0x40001e88
    3034:	ada2f093          	andi	ra,t0,-1318
    3038:	a67242b7          	lui	t0,0xa6724
    303c:	0e014113          	xori	sp,sp,224
    3040:	40002137          	lui	sp,0x40002
    3044:	00210133          	add	sp,sp,sp
    3048:	e8813003          	ld	zero,-376(sp) # 0x40001e88
    304c:	8b63a137          	lui	sp,0x8b63a
    3050:	3207b137          	lui	sp,0x3207b
    3054:	cddd41b7          	lui	gp,0xcddd4
    3058:	37b54137          	lui	sp,0x37b54
    305c:	78c24093          	xori	ra,tp,1932
    3060:	5aa69137          	lui	sp,0x5aa69
    3064:	023161b7          	lui	gp,0x2316
    3068:	6b10f313          	andi	t1,ra,1713
    306c:	400027b7          	lui	a5,0x40002
    3070:	00f787b3          	add	a5,a5,a5
    3074:	e907b083          	ld	ra,-368(a5) # 0x40001e90
    3078:	a083a6b7          	lui	a3,0xa083a
    307c:	b900f193          	andi	gp,ra,-1136
    3080:	015931b7          	lui	gp,0x1593
    3084:	ee418ae3          	beq	gp,tp,0x2f78
    3088:	ef1ff16f          	jal	sp,0x2f78
    308c:	0a114093          	xori	ra,sp,161
    3090:	8c827113          	andi	sp,tp,-1848
    3094:	8c410193          	addi	gp,sp,-1852 # 0x5aa688c4
    3098:	06508137          	lui	sp,0x6508
    309c:	40002137          	lui	sp,0x40002
    30a0:	00210133          	add	sp,sp,sp
    30a4:	e8813203          	ld	tp,-376(sp) # 0x40001e88
    30a8:	46c34213          	xori	tp,t1,1132
    30ac:	7cf20193          	addi	gp,tp,1999 # 0x7cf
    30b0:	fd9fe137          	lui	sp,0xfd9fe
    30b4:	c114c0b7          	lui	ra,0xc114c
    30b8:	8252c113          	xori	sp,t0,-2011
    30bc:	f3ffb0b7          	lui	ra,0xf3ffb
    30c0:	75a1f193          	andi	gp,gp,1882
    30c4:	12934113          	xori	sp,t1,297
    30c8:	8fc6e093          	ori	ra,a3,-1796
    30cc:	80dd10b7          	lui	ra,0x80dd1
    30d0:	02d3e193          	ori	gp,t2,45
    30d4:	3cffc137          	lui	sp,0x3cffc
    30d8:	c422c237          	lui	tp,0xc422c
    30dc:	400021b7          	lui	gp,0x40002
    30e0:	003181b3          	add	gp,gp,gp
    30e4:	e811b823          	sd	ra,-368(gp) # 0x40001e90
    30e8:	e4ac7337          	lui	t1,0xe4ac7
    30ec:	83779137          	lui	sp,0x83779
    30f0:	84338113          	addi	sp,t2,-1981 # 0xffffffff9866a843
    30f4:	d50730b7          	lui	ra,0xd5073
    30f8:	6903e393          	ori	t2,t2,1680
    30fc:	eae0f213          	andi	tp,ra,-338
    3100:	57318113          	addi	sp,gp,1395
    3104:	aa310193          	addi	gp,sp,-1373 # 0xffffffff83778aa3
    3108:	040ea1b7          	lui	gp,0x40ea
    310c:	00008113          	mv	sp,ra
    3110:	c01108e3          	beq	sp,ra,0x2d20
    3114:	92b8f293          	andi	t0,a7,-1749
    3118:	00b38113          	addi	sp,t2,11
    311c:	733ba1b7          	lui	gp,0x733ba
    3120:	56777137          	lui	sp,0x56777
    3124:	6402f5b7          	lui	a1,0x6402f
    3128:	40002137          	lui	sp,0x40002
    312c:	00210133          	add	sp,sp,sp
    3130:	e9013183          	ld	gp,-368(sp) # 0x40001e90
    3134:	c6216693          	ori	a3,sp,-926
    3138:	4899b1b7          	lui	gp,0x4899b
    313c:	1a21f913          	andi	s2,gp,418
    3140:	03f17193          	andi	gp,sp,63
    3144:	20424313          	xori	t1,tp,516
    3148:	57a101b7          	lui	gp,0x57a10
    314c:	28d657b7          	lui	a5,0x28d65
    3150:	d3e18193          	addi	gp,gp,-706 # 0x57a0fd3e
    3154:	2426b137          	lui	sp,0x2426b
    3158:	dbf25237          	lui	tp,0xdbf25
    315c:	be9671b7          	lui	gp,0xbe967
    3160:	7ffce137          	lui	sp,0x7ffce
    3164:	400021b7          	lui	gp,0x40002
    3168:	003181b3          	add	gp,gp,gp
    316c:	e801b423          	sd	zero,-376(gp) # 0x40001e88
    3170:	c9c41037          	lui	zero,0xc9c41
    3174:	400020b7          	lui	ra,0x40002
    3178:	001080b3          	add	ra,ra,ra
    317c:	e810b823          	sd	ra,-368(ra) # 0x40001e90
    3180:	03b14093          	xori	ra,sp,59
    3184:	fbc17093          	andi	ra,sp,-68
    3188:	b4716137          	lui	sp,0xb4716
    318c:	bb4930b7          	lui	ra,0xbb493
    3190:	9a56c1b7          	lui	gp,0x9a56c
    3194:	cc2df0b7          	lui	ra,0xcc2df
    3198:	e5210093          	addi	ra,sp,-430 # 0xffffffffb4715e52
    319c:	f700c193          	xori	gp,ra,-144
    31a0:	b850e113          	ori	sp,ra,-1147
    31a4:	00308463          	beq	ra,gp,0x31ac
    31a8:	0040016f          	jal	sp,0x31ac
    31ac:	400023b7          	lui	t2,0x40002
    31b0:	007383b3          	add	t2,t2,t2
    31b4:	e863b423          	sd	t1,-376(t2) # 0x40001e88
    31b8:	c1c7e3b7          	lui	t2,0xc1c7e
    31bc:	92a8e037          	lui	zero,0x92a8e
    31c0:	2d327193          	andi	gp,tp,723
    31c4:	40002237          	lui	tp,0x40002
    31c8:	00420233          	add	tp,tp,tp
    31cc:	e9023183          	ld	gp,-368(tp) # 0x40001e90
    31d0:	4c44b137          	lui	sp,0x4c44b
    31d4:	4d916313          	ori	t1,sp,1241
    31d8:	0e194037          	lui	zero,0xe194
    31dc:	e80810b7          	lui	ra,0xe8081
    31e0:	40002137          	lui	sp,0x40002
    31e4:	00210133          	add	sp,sp,sp
    31e8:	e8413823          	sd	tp,-368(sp) # 0x40001e90
    31ec:	400023b7          	lui	t2,0x40002
    31f0:	007383b3          	add	t2,t2,t2
    31f4:	e883b083          	ld	ra,-376(t2) # 0x40001e88
    31f8:	40002137          	lui	sp,0x40002
    31fc:	00210133          	add	sp,sp,sp
    3200:	e8313823          	sd	gp,-368(sp) # 0x40001e90
    3204:	a38d01b7          	lui	gp,0xa38d0
    3208:	4795f137          	lui	sp,0x4795f
    320c:	58c16193          	ori	gp,sp,1420
    3210:	d0a24113          	xori	sp,tp,-758
    3214:	455961b7          	lui	gp,0x45596
    3218:	d8040337          	lui	t1,0xd8040
    321c:	6c90e013          	ori	zero,ra,1737
    3220:	5bc17193          	andi	gp,sp,1468
    3224:	f1d38137          	lui	sp,0xf1d38
    3228:	f0ee51b7          	lui	gp,0xf0ee5
    322c:	2c908113          	addi	sp,ra,713 # 0xffffffffe80812c9
    3230:	60c270b7          	lui	ra,0x60c27
    3234:	50f18863          	beq	gp,a5,0x3744
    3238:	50c000ef          	jal	ra,0x3744
    323c:	2e35e193          	ori	gp,a1,739
    3240:	400020b7          	lui	ra,0x40002
    3244:	001080b3          	add	ra,ra,ra
    3248:	e830b823          	sd	gp,-368(ra) # 0x40001e90
    324c:	0a626593          	ori	a1,tp,166
    3250:	927e61b7          	lui	gp,0x927e6
    3254:	400021b7          	lui	gp,0x40002
    3258:	003181b3          	add	gp,gp,gp
    325c:	e811b423          	sd	ra,-376(gp) # 0x40001e88
    3260:	f2522137          	lui	sp,0xf2522
    3264:	a240e293          	ori	t0,ra,-1500
    3268:	40002137          	lui	sp,0x40002
    326c:	00210133          	add	sp,sp,sp
    3270:	e8313423          	sd	gp,-376(sp) # 0x40001e88
    3274:	6501c093          	xori	ra,gp,1616
    3278:	12c1f113          	andi	sp,gp,300
    327c:	acf0c337          	lui	t1,0xacf0c
    3280:	1d324193          	xori	gp,tp,467
    3284:	c3f1e113          	ori	sp,gp,-961
    3288:	8aa907b7          	lui	a5,0x8aa90
    328c:	2e859137          	lui	sp,0x2e859
    3290:	3a2b19b7          	lui	s3,0x3a2b1
    3294:	2781f093          	andi	ra,gp,632
    3298:	6c6e3137          	lui	sp,0x6c6e3
    329c:	ba10e193          	ori	gp,ra,-1119
    32a0:	90145337          	lui	t1,0x90145
    32a4:	a111c093          	xori	ra,gp,-1519
    32a8:	3a1050b7          	lui	ra,0x3a105
    32ac:	48216393          	ori	t2,sp,1154
    32b0:	4fc460b7          	lui	ra,0x4fc46
    32b4:	cb21c393          	xori	t2,gp,-846
    32b8:	17c18113          	addi	sp,gp,380
    32bc:	e1014213          	xori	tp,sp,-496
    32c0:	28306113          	ori	sp,zero,643
    32c4:	12230863          	beq	t1,sp,0x33f4
    32c8:	12c0016f          	jal	sp,0x33f4
    32cc:	eb916193          	ori	gp,sp,-327
    32d0:	400021b7          	lui	gp,0x40002
    32d4:	003181b3          	add	gp,gp,gp
    32d8:	e821b423          	sd	sp,-376(gp) # 0x40001e88
    32dc:	46a6e093          	ori	ra,a3,1130
    32e0:	74837093          	andi	ra,t1,1864
    32e4:	52c10093          	addi	ra,sp,1324 # 0x6c6e352c
    32e8:	f2a24013          	xori	zero,tp,-214
    32ec:	32c14093          	xori	ra,sp,812
    32f0:	5e10c093          	xori	ra,ra,1505
    32f4:	4d765237          	lui	tp,0x4d765
    32f8:	30916193          	ori	gp,sp,777
    32fc:	400021b7          	lui	gp,0x40002
    3300:	003181b3          	add	gp,gp,gp
    3304:	e811b423          	sd	ra,-376(gp) # 0x40001e88
    3308:	6e51b137          	lui	sp,0x6e51b
    330c:	b3db9337          	lui	t1,0xb3db9
    3310:	0f3901b7          	lui	gp,0xf390
    3314:	76e581b7          	lui	gp,0x76e58
    3318:	8aa29337          	lui	t1,0x8aa29
    331c:	bab1fd93          	andi	s11,gp,-1109
    3320:	2df16113          	ori	sp,sp,735
    3324:	538eb037          	lui	zero,0x538eb
    3328:	224a3037          	lui	zero,0x224a3
    332c:	e59643b7          	lui	t2,0xe5964
    3330:	499591b7          	lui	gp,0x49959
    3334:	b7017137          	lui	sp,0xb7017
    3338:	a40570b7          	lui	ra,0xa4057
    333c:	86b7f0b7          	lui	ra,0x86b7f
    3340:	96d8a3b7          	lui	t2,0x96d8a
    3344:	3c124013          	xori	zero,tp,961
    3348:	92fa6037          	lui	zero,0x92fa6
    334c:	11c930b7          	lui	ra,0x11c93
    3350:	3ab690b7          	lui	ra,0x3ab69
    3354:	00010093          	mv	ra,sp
    3358:	2c208463          	beq	ra,sp,0x3620
    335c:	6cc18293          	addi	t0,gp,1740 # 0x499596cc
    3360:	54149137          	lui	sp,0x54149
    3364:	d5014093          	xori	ra,sp,-688
    3368:	d7de0137          	lui	sp,0xd7de0
    336c:	2f008093          	addi	ra,ra,752 # 0x3ab692f0
    3370:	12bbf1b7          	lui	gp,0x12bbf
    3374:	c6e1f093          	andi	ra,gp,-914
    3378:	fe60f113          	andi	sp,ra,-26
    337c:	0c114113          	xori	sp,sp,193
    3380:	9b879337          	lui	t1,0x9b879
    3384:	3691f113          	andi	sp,gp,873
    3388:	400020b7          	lui	ra,0x40002
    338c:	001080b3          	add	ra,ra,ra
    3390:	e880b783          	ld	a5,-376(ra) # 0x40001e88
    3394:	f5880037          	lui	zero,0xf5880
    3398:	0435d737          	lui	a4,0x435d
    339c:	f5a17337          	lui	t1,0xf5a17
    33a0:	6c90c193          	xori	gp,ra,1737
    33a4:	85308093          	addi	ra,ra,-1965
    33a8:	0802f3b7          	lui	t2,0x802f
    33ac:	b990c737          	lui	a4,0xb990c
    33b0:	40002337          	lui	t1,0x40002
    33b4:	00630333          	add	t1,t1,t1
    33b8:	e9033183          	ld	gp,-368(t1) # 0x40001e90
    33bc:	2b21e093          	ori	ra,gp,690
    33c0:	d5a18113          	addi	sp,gp,-678 # 0x12bbed5a
    33c4:	94e0a4b7          	lui	s1,0x94e0a
    33c8:	400020b7          	lui	ra,0x40002
    33cc:	001080b3          	add	ra,ra,ra
    33d0:	e810b823          	sd	ra,-368(ra) # 0x40001e90
    33d4:	400021b7          	lui	gp,0x40002
    33d8:	003181b3          	add	gp,gp,gp
    33dc:	e901b083          	ld	ra,-368(gp) # 0x40001e90
    33e0:	49e931b7          	lui	gp,0x49e93
    33e4:	ab96e0b7          	lui	ra,0xab96e
    33e8:	52108313          	addi	t1,ra,1313 # 0xffffffffab96e521
    33ec:	00008113          	mv	sp,ra
    33f0:	a61100e3          	beq	sp,ra,0x2e50
    33f4:	53a60037          	lui	zero,0x53a60
    33f8:	b34f62b7          	lui	t0,0xb34f6
    33fc:	f3638237          	lui	tp,0xf3638
    3400:	400020b7          	lui	ra,0x40002
    3404:	001080b3          	add	ra,ra,ra
    3408:	e9f0b423          	sd	t6,-376(ra) # 0x40001e88
    340c:	400021b7          	lui	gp,0x40002
    3410:	003181b3          	add	gp,gp,gp
    3414:	e861b823          	sd	t1,-368(gp) # 0x40001e90
    3418:	9a0b1137          	lui	sp,0x9a0b1
    341c:	4c6da1b7          	lui	gp,0x4c6da
    3420:	6ad17093          	andi	ra,sp,1709
    3424:	1f9d41b7          	lui	gp,0x1f9d4
    3428:	31c3dd37          	lui	s10,0x31c3d
    342c:	5bf1e193          	ori	gp,gp,1471
    3430:	e335e137          	lui	sp,0xe335e
    3434:	ffd0e193          	ori	gp,ra,-3
    3438:	acad20b7          	lui	ra,0xacad2
    343c:	d49430b7          	lui	ra,0xd4943
    3440:	4f110313          	addi	t1,sp,1265 # 0xffffffffe335e4f1
    3444:	81d800b7          	lui	ra,0x81d80
    3448:	bf431137          	lui	sp,0xbf431
    344c:	d89c81b7          	lui	gp,0xd89c8
    3450:	70d613b7          	lui	t2,0x70d61
    3454:	d271fd13          	andi	s10,gp,-729
    3458:	4590f093          	andi	ra,ra,1113
    345c:	d5f8a0b7          	lui	ra,0xd5f8a
    3460:	ae53c013          	xori	zero,t2,-1307
    3464:	8283a237          	lui	tp,0x8283a
    3468:	5d274137          	lui	sp,0x5d274
    346c:	e6c6e137          	lui	sp,0xe6c6e
    3470:	0841c093          	xori	ra,gp,132
    3474:	ee2084e3          	beq	ra,sp,0x335c
    3478:	ee5ff1ef          	jal	gp,0x335c
    347c:	400020b7          	lui	ra,0x40002
    3480:	001080b3          	add	ra,ra,ra
    3484:	e880b183          	ld	gp,-376(ra) # 0x40001e88
    3488:	31e0f193          	andi	gp,ra,798
    348c:	99437113          	andi	sp,t1,-1644
    3490:	9a31c113          	xori	sp,gp,-1629
    3494:	eefbc037          	lui	zero,0xeefbc
    3498:	d2f1e193          	ori	gp,gp,-721
    349c:	39618493          	addi	s1,gp,918 # 0xffffffffd89c8396
    34a0:	1f614137          	lui	sp,0x1f614
    34a4:	20b04113          	xori	sp,zero,523
    34a8:	35438093          	addi	ra,t2,852 # 0x70d61354
    34ac:	a3b1e2b7          	lui	t0,0xa3b1e
    34b0:	0cf0f193          	andi	gp,ra,207
    34b4:	d5e5f093          	andi	ra,a1,-674
    34b8:	20e640b7          	lui	ra,0x20e64
    34bc:	bee741b7          	lui	gp,0xbee74
    34c0:	5c20b237          	lui	tp,0x5c20b
    34c4:	adf81137          	lui	sp,0xadf81
    34c8:	1600c013          	xori	zero,ra,352
    34cc:	400020b7          	lui	ra,0x40002
    34d0:	001080b3          	add	ra,ra,ra
    34d4:	e900b083          	ld	ra,-368(ra) # 0x40001e90
    34d8:	95210793          	addi	a5,sp,-1710 # 0xffffffffadf80952
    34dc:	40002137          	lui	sp,0x40002
    34e0:	00210133          	add	sp,sp,sp
    34e4:	e8013823          	sd	zero,-368(sp) # 0x40001e90
    34e8:	338940b7          	lui	ra,0x33894
    34ec:	6183f193          	andi	gp,t2,1560
    34f0:	20ddd237          	lui	tp,0x20ddd
    34f4:	febd4037          	lui	zero,0xfebd4
    34f8:	8a208ae3          	beq	ra,sp,0x2dac
    34fc:	8b1ff1ef          	jal	gp,0x2dac
    3500:	54e00093          	li	ra,1358
    3504:	a1489037          	lui	zero,0xa1489
    3508:	1f956037          	lui	zero,0x1f956
    350c:	400020b7          	lui	ra,0x40002
    3510:	001080b3          	add	ra,ra,ra
    3514:	e810b823          	sd	ra,-368(ra) # 0x40001e90
    3518:	cebe00b7          	lui	ra,0xcebe0
    351c:	3c61f093          	andi	ra,gp,966
    3520:	9fe8c1b7          	lui	gp,0x9fe8c
    3524:	c3c080b7          	lui	ra,0xc3c08
    3528:	400022b7          	lui	t0,0x40002
    352c:	005282b3          	add	t0,t0,t0
    3530:	e902b103          	ld	sp,-368(t0) # 0x40001e90
    3534:	9cb74337          	lui	t1,0x9cb74
    3538:	60c011b7          	lui	gp,0x60c01
    353c:	9a3363b7          	lui	t2,0x9a336
    3540:	cc432137          	lui	sp,0xcc432
    3544:	5e104093          	xori	ra,zero,1505
    3548:	629f60b7          	lui	ra,0x629f6
    354c:	da327237          	lui	tp,0xda327
    3550:	c500c113          	xori	sp,ra,-944
    3554:	b1e991b7          	lui	gp,0xb1e99
    3558:	c4a1f293          	andi	t0,gp,-950
    355c:	73416113          	ori	sp,sp,1844
    3560:	6d408093          	addi	ra,ra,1748 # 0x629f66d4
    3564:	6b525237          	lui	tp,0x6b525
    3568:	74618193          	addi	gp,gp,1862 # 0xffffffffb1e99746
    356c:	66a153b7          	lui	t2,0x66a15
    3570:	40002237          	lui	tp,0x40002
    3574:	00420233          	add	tp,tp,tp
    3578:	e9023183          	ld	gp,-368(tp) # 0x40001e90
    357c:	b11088e3          	beq	ra,a7,0x308c
    3580:	b0dff36f          	jal	t1,0x308c
    3584:	b2ac13b7          	lui	t2,0xb2ac1
    3588:	a9c08013          	addi	zero,ra,-1380
    358c:	76b6c193          	xori	gp,a3,1899
    3590:	f3268337          	lui	t1,0xf3268
    3594:	12711137          	lui	sp,0x12711
    3598:	7078e3b7          	lui	t2,0x7078e
    359c:	400021b7          	lui	gp,0x40002
    35a0:	003181b3          	add	gp,gp,gp
    35a4:	e901b103          	ld	sp,-368(gp) # 0x40001e90
    35a8:	40002137          	lui	sp,0x40002
    35ac:	00210133          	add	sp,sp,sp
    35b0:	e8813203          	ld	tp,-376(sp) # 0x40001e88
    35b4:	40002137          	lui	sp,0x40002
    35b8:	00210133          	add	sp,sp,sp
    35bc:	e8813103          	ld	sp,-376(sp) # 0x40001e88
    35c0:	4160f113          	andi	sp,ra,1046
    35c4:	4d610293          	addi	t0,sp,1238
    35c8:	400023b7          	lui	t2,0x40002
    35cc:	007383b3          	add	t2,t2,t2
    35d0:	e883b183          	ld	gp,-376(t2) # 0x40001e88
    35d4:	c03fa137          	lui	sp,0xc03fa
    35d8:	c29ae2b7          	lui	t0,0xc29ae
    35dc:	3c514093          	xori	ra,sp,965
    35e0:	f40f0113          	addi	sp,t5,-192
    35e4:	39124013          	xori	zero,tp,913
    35e8:	52b1e113          	ori	sp,gp,1323
    35ec:	4b24d0b7          	lui	ra,0x4b24d
    35f0:	3d9b10b7          	lui	ra,0x3d9b1
    35f4:	6c83a137          	lui	sp,0x6c83a
    35f8:	929912b7          	lui	t0,0x92991
    35fc:	f8f0e113          	ori	sp,ra,-113
    3600:	2380c013          	xori	zero,ra,568
    3604:	0c000313          	li	t1,192
    3608:	72a18193          	addi	gp,gp,1834
    360c:	c700e113          	ori	sp,ra,-912
    3610:	542660b7          	lui	ra,0x54266
    3614:	52b0c093          	xori	ra,ra,1323
    3618:	00020693          	mv	a3,tp
    361c:	c24680e3          	beq	a3,tp,0x323c
    3620:	13c10093          	addi	ra,sp,316 # 0x6c83a13c
    3624:	e090e213          	ori	tp,ra,-503
    3628:	fe3ef337          	lui	t1,0xfe3ef
    362c:	46b8a4b7          	lui	s1,0x46b8a
    3630:	58007513          	andi	a0,zero,1408
    3634:	9076a1b7          	lui	gp,0x9076a
    3638:	f361e1b7          	lui	gp,0xf361e
    363c:	f1b421b7          	lui	gp,0xf1b42
    3640:	922e22b7          	lui	t0,0x922e2
    3644:	fa879b37          	lui	s6,0xfa879
    3648:	dd51f093          	andi	ra,gp,-555
    364c:	d6b08193          	addi	gp,ra,-661 # 0x54265d6b
    3650:	74f391b7          	lui	gp,0x74f39
    3654:	82716113          	ori	sp,sp,-2009
    3658:	4bc5e193          	ori	gp,a1,1212
    365c:	8fa3d1b7          	lui	gp,0x8fa3d
    3660:	c61ed1b7          	lui	gp,0xc61ed
    3664:	24f0d0b7          	lui	ra,0x24f0d
    3668:	cf0eb0b7          	lui	ra,0xcf0eb
    366c:	22d773b7          	lui	t2,0x22d77
    3670:	40002337          	lui	t1,0x40002
    3674:	00630333          	add	t1,t1,t1
    3678:	e8133423          	sd	ra,-376(t1) # 0x40001e88
    367c:	fb3ce237          	lui	tp,0xfb3ce
    3680:	7e9050b7          	lui	ra,0x7e905
    3684:	0ac300b7          	lui	ra,0xac30
    3688:	af717193          	andi	gp,sp,-1289
    368c:	e20f33b7          	lui	t2,0xe20f3
    3690:	ec6261b7          	lui	gp,0xec626
    3694:	227b60b7          	lui	ra,0x227b6
    3698:	40002eb7          	lui	t4,0x40002
    369c:	01de8eb3          	add	t4,t4,t4
    36a0:	e83eb423          	sd	gp,-376(t4) # 0x40001e88
    36a4:	88734393          	xori	t2,t1,-1913
    36a8:	71617113          	andi	sp,sp,1814
    36ac:	c391d0b7          	lui	ra,0xc391d
    36b0:	83326293          	ori	t0,tp,-1997
    36b4:	00000293          	li	t0,0
    36b8:	940284e3          	beqz	t0,0x3000
    36bc:	5621ed13          	ori	s10,gp,1378
    36c0:	fe7331b7          	lui	gp,0xfe733
    36c4:	400021b7          	lui	gp,0x40002
    36c8:	003181b3          	add	gp,gp,gp
    36cc:	e831b423          	sd	gp,-376(gp) # 0x40001e88
    36d0:	9a224193          	xori	gp,tp,-1630
    36d4:	efb812b7          	lui	t0,0xefb81
    36d8:	41f14113          	xori	sp,sp,1055
    36dc:	de418093          	addi	ra,gp,-540
    36e0:	16616193          	ori	gp,sp,358
    36e4:	18f17113          	andi	sp,sp,399
    36e8:	2ae08193          	addi	gp,ra,686 # 0xffffffffc391d2ae
    36ec:	1800e093          	ori	ra,ra,384
    36f0:	01df61b7          	lui	gp,0x1df6
    36f4:	de14c137          	lui	sp,0xde14c
    36f8:	2461f013          	andi	zero,gp,582
    36fc:	c9f08293          	addi	t0,ra,-865
    3700:	c18a00b7          	lui	ra,0xc18a0
    3704:	04b10193          	addi	gp,sp,75 # 0xffffffffde14c04b
    3708:	dec36113          	ori	sp,t1,-532
    370c:	9d60e213          	ori	tp,ra,-1578
    3710:	4e31d5b7          	lui	a1,0x4e31d
    3714:	40002b37          	lui	s6,0x40002
    3718:	016b0b33          	add	s6,s6,s6
    371c:	e90b3383          	ld	t2,-368(s6) # 0x40001e90
    3720:	b5217313          	andi	t1,sp,-1198
    3724:	4fbed037          	lui	zero,0x4fbed
    3728:	400021b7          	lui	gp,0x40002
    372c:	003181b3          	add	gp,gp,gp
    3730:	e871b823          	sd	t2,-368(gp) # 0x40001e90
    3734:	f2094037          	lui	zero,0xf2094
    3738:	f2a863b7          	lui	t2,0xf2a86
    373c:	0a010a63          	beqz	sp,0x37f0
    3740:	0b0000ef          	jal	ra,0x37f0
    3744:	b63b0137          	lui	sp,0xb63b0
    3748:	063b7137          	lui	sp,0x63b7
    374c:	363a8137          	lui	sp,0x363a8
    3750:	400021b7          	lui	gp,0x40002
    3754:	003181b3          	add	gp,gp,gp
    3758:	e821b823          	sd	sp,-368(gp) # 0x40001e90
    375c:	4291e113          	ori	sp,gp,1065
    3760:	07d317b7          	lui	a5,0x7d31
    3764:	3daee937          	lui	s2,0x3daee
    3768:	5c70c193          	xori	gp,ra,1479
    376c:	5b817193          	andi	gp,sp,1464
    3770:	91f26093          	ori	ra,tp,-1761
    3774:	eaf06093          	ori	ra,zero,-337
    3778:	cb317093          	andi	ra,sp,-845
    377c:	b9c0e693          	ori	a3,ra,-1124
    3780:	8ff93db7          	lui	s11,0x8ff93
    3784:	aa1b21b7          	lui	gp,0xaa1b2
    3788:	5290e093          	ori	ra,ra,1321
    378c:	5864f3b7          	lui	t2,0x5864f
    3790:	40002a37          	lui	s4,0x40002
    3794:	014a0a33          	add	s4,s4,s4
    3798:	e81a3823          	sd	ra,-368(s4) # 0x40001e90
    379c:	3c3cb1b7          	lui	gp,0x3c3cb
    37a0:	0fa38213          	addi	tp,t2,250 # 0x5864f0fa
    37a4:	841f7037          	lui	zero,0x841f7
    37a8:	2cf571b7          	lui	gp,0x2cf57
    37ac:	1ca311b7          	lui	gp,0x1ca31
    37b0:	a5e56193          	ori	gp,a0,-1442
    37b4:	32330093          	addi	ra,t1,803
    37b8:	0737f093          	andi	ra,a5,115
    37bc:	40002137          	lui	sp,0x40002
    37c0:	00210133          	add	sp,sp,sp
    37c4:	e9013303          	ld	t1,-368(sp) # 0x40001e90
    37c8:	fa90e793          	ori	a5,ra,-87
    37cc:	2db531b7          	lui	gp,0x2db53
    37d0:	83214193          	xori	gp,sp,-1998
    37d4:	ba161137          	lui	sp,0xba161
    37d8:	40002337          	lui	t1,0x40002
    37dc:	00630333          	add	t1,t1,t1
    37e0:	e8733823          	sd	t2,-368(t1) # 0x40001e90
    37e4:	bc80c193          	xori	gp,ra,-1080
    37e8:	00018093          	mv	ra,gp
    37ec:	d0308ae3          	beq	ra,gp,0x3500
    37f0:	400021b7          	lui	gp,0x40002
    37f4:	003181b3          	add	gp,gp,gp
    37f8:	e881b083          	ld	ra,-376(gp) # 0x40001e88
    37fc:	9c96e093          	ori	ra,a3,-1591
    3800:	e8514137          	lui	sp,0xe8514
    3804:	1e99d737          	lui	a4,0x1e99d
    3808:	ed1a46b7          	lui	a3,0xed1a4
    380c:	f8917093          	andi	ra,sp,-119
    3810:	32f0f0b7          	lui	ra,0x32f0f
    3814:	63d6e093          	ori	ra,a3,1597
    3818:	a1f4d1b7          	lui	gp,0xa1f4d
    381c:	09631037          	lui	zero,0x9631
    3820:	2a63e293          	ori	t0,t2,678
    3824:	a069c137          	lui	sp,0xa069c
    3828:	71c42837          	lui	a6,0x71c42
    382c:	e09f20b7          	lui	ra,0xe09f2
    3830:	e6d3e093          	ori	ra,t2,-403
    3834:	e0f10193          	addi	gp,sp,-497 # 0xffffffffa069be0f
    3838:	0161e113          	ori	sp,gp,22
    383c:	8a617013          	andi	zero,sp,-1882
    3840:	400021b7          	lui	gp,0x40002
    3844:	003181b3          	add	gp,gp,gp
    3848:	e821b423          	sd	sp,-376(gp) # 0x40001e88
    384c:	c31a30b7          	lui	ra,0xc31a3
    3850:	ca20f113          	andi	sp,ra,-862
    3854:	09a01137          	lui	sp,0x9a01
    3858:	40002137          	lui	sp,0x40002
    385c:	00210133          	add	sp,sp,sp
    3860:	e9013283          	ld	t0,-368(sp) # 0x40001e90
    3864:	f2b1f193          	andi	gp,gp,-213
    3868:	400021b7          	lui	gp,0x40002
    386c:	003181b3          	add	gp,gp,gp
    3870:	e881b083          	ld	ra,-376(gp) # 0x40001e88
    3874:	3772e113          	ori	sp,t0,887
    3878:	0c051137          	lui	sp,0xc051
    387c:	e07731b7          	lui	gp,0xe0773
    3880:	b690f213          	andi	tp,ra,-1175
    3884:	00218463          	beq	gp,sp,0x388c
    3888:	004000ef          	jal	ra,0x388c
    388c:	b3714093          	xori	ra,sp,-1225
    3890:	7b9cc2b7          	lui	t0,0x7b9cc
    3894:	06408393          	addi	t2,ra,100 # 0xffffffffc31a3064
    3898:	c8f82137          	lui	sp,0xc8f82
    389c:	11b861b7          	lui	gp,0x11b86
    38a0:	29730193          	addi	gp,t1,663
    38a4:	400021b7          	lui	gp,0x40002
    38a8:	003181b3          	add	gp,gp,gp
    38ac:	e811b423          	sd	ra,-376(gp) # 0x40001e88
    38b0:	6fef20b7          	lui	ra,0x6fef2
    38b4:	7c924013          	xori	zero,tp,1993
    38b8:	2c81f093          	andi	ra,gp,712
    38bc:	4092b137          	lui	sp,0x4092b
    38c0:	08d1c113          	xori	sp,gp,141
    38c4:	b420c093          	xori	ra,ra,-1214
    38c8:	c53c50b7          	lui	ra,0xc53c5
    38cc:	ea60b1b7          	lui	gp,0xea60b
    38d0:	400020b7          	lui	ra,0x40002
    38d4:	001080b3          	add	ra,ra,ra
    38d8:	e900b083          	ld	ra,-368(ra) # 0x40001e90
    38dc:	25014113          	xori	sp,sp,592
    38e0:	db692337          	lui	t1,0xdb692
    38e4:	6bc10213          	addi	tp,sp,1724 # 0x4092b6bc
    38e8:	52e14493          	xori	s1,sp,1326
    38ec:	190f23b7          	lui	t2,0x190f2
    38f0:	1d814113          	xori	sp,sp,472
    38f4:	e45311b7          	lui	gp,0xe4531
    38f8:	525b4113          	xori	sp,s6,1317
    38fc:	9e60e113          	ori	sp,ra,-1562
    3900:	40002137          	lui	sp,0x40002
    3904:	00210133          	add	sp,sp,sp
    3908:	e8713423          	sd	t2,-376(sp) # 0x40001e88
    390c:	179121b7          	lui	gp,0x17912
    3910:	cadf0137          	lui	sp,0xcadf0
    3914:	6f7f30b7          	lui	ra,0x6f7f3
    3918:	3e310663          	beq	sp,gp,0x3d04
    391c:	3e8002ef          	jal	t0,0x3d04
    3920:	7b210113          	addi	sp,sp,1970 # 0xffffffffcadf07b2
    3924:	57df40b7          	lui	ra,0x57df4
    3928:	2f912137          	lui	sp,0x2f912
    392c:	11cc0337          	lui	t1,0x11cc0
    3930:	fb3d2137          	lui	sp,0xfb3d2
    3934:	86378993          	addi	s3,a5,-1949 # 0x7d30863
    3938:	40002237          	lui	tp,0x40002
    393c:	00420233          	add	tp,tp,tp
    3940:	e8523823          	sd	t0,-368(tp) # 0x40001e90
    3944:	e5d17113          	andi	sp,sp,-419
    3948:	91ebd137          	lui	sp,0x91ebd
    394c:	5648f137          	lui	sp,0x5648f
    3950:	1770f093          	andi	ra,ra,375
    3954:	6621d337          	lui	t1,0x6621d
    3958:	43a17213          	andi	tp,sp,1082
    395c:	4661c393          	xori	t2,gp,1126
    3960:	5541c113          	xori	sp,gp,1364
    3964:	b8c1c113          	xori	sp,gp,-1140
    3968:	00a98137          	lui	sp,0xa98
    396c:	40002337          	lui	t1,0x40002
    3970:	00630333          	add	t1,t1,t1
    3974:	e8833103          	ld	sp,-376(t1) # 0x40001e88
    3978:	400021b7          	lui	gp,0x40002
    397c:	003181b3          	add	gp,gp,gp
    3980:	e821b423          	sd	sp,-376(gp) # 0x40001e88
    3984:	e2037193          	andi	gp,t1,-480
    3988:	9d622137          	lui	sp,0x9d622
    398c:	4bfad0b7          	lui	ra,0x4bfad
    3990:	51e00137          	lui	sp,0x51e00
    3994:	7c01f113          	andi	sp,gp,1984
    3998:	d7d961b7          	lui	gp,0xd7d96
    399c:	a7bc3137          	lui	sp,0xa7bc3
    39a0:	8e6803b7          	lui	t2,0x8e680
    39a4:	bce0e113          	ori	sp,ra,-1074
    39a8:	12218263          	beq	gp,sp,0x3acc
    39ac:	1200016f          	jal	sp,0x3acc
    39b0:	0fc36237          	lui	tp,0xfc36
    39b4:	93f18093          	addi	ra,gp,-1729 # 0xffffffffd7d9593f
    39b8:	22e1b0b7          	lui	ra,0x22e1b
    39bc:	df818193          	addi	gp,gp,-520
    39c0:	ccb83537          	lui	a0,0xccb83
    39c4:	0e416193          	ori	gp,sp,228
    39c8:	054c40b7          	lui	ra,0x54c4
    39cc:	3960c693          	xori	a3,ra,918
    39d0:	05aa53b7          	lui	t2,0x5aa5
    39d4:	a74aa5b7          	lui	a1,0xa74aa
    39d8:	400020b7          	lui	ra,0x40002
    39dc:	001080b3          	add	ra,ra,ra
    39e0:	e880b283          	ld	t0,-376(ra) # 0x40001e88
    39e4:	6c06b1b7          	lui	gp,0x6c06b
    39e8:	381d7137          	lui	sp,0x381d7
    39ec:	bcf8c3b7          	lui	t2,0xbcf8c
    39f0:	400020b7          	lui	ra,0x40002
    39f4:	001080b3          	add	ra,ra,ra
    39f8:	e900b103          	ld	sp,-368(ra) # 0x40001e90
    39fc:	b9d652b7          	lui	t0,0xb9d65
    3a00:	77636313          	ori	t1,t1,1910
    3a04:	cda40137          	lui	sp,0xcda40
    3a08:	327831b7          	lui	gp,0x32783
    3a0c:	40002137          	lui	sp,0x40002
    3a10:	00210133          	add	sp,sp,sp
    3a14:	e8813103          	ld	sp,-376(sp) # 0x40001e88
    3a18:	108a3137          	lui	sp,0x108a3
    3a1c:	a84f20b7          	lui	ra,0xa84f2
    3a20:	2c4d6037          	lui	zero,0x2c4d6
    3a24:	400021b7          	lui	gp,0x40002
    3a28:	003181b3          	add	gp,gp,gp
    3a2c:	e881b083          	ld	ra,-376(gp) # 0x40001e88
    3a30:	03463337          	lui	t1,0x3463
    3a34:	6478d0b7          	lui	ra,0x6478d
    3a38:	ae3b9137          	lui	sp,0xae3b9
    3a3c:	2b004137          	lui	sp,0x2b004
    3a40:	34208e63          	beq	ra,sp,0x3d9c
    3a44:	358001ef          	jal	gp,0x3d9c
    3a48:	76e9e037          	lui	zero,0x76e9e
    3a4c:	3e916193          	ori	gp,sp,1001
    3a50:	40002137          	lui	sp,0x40002
    3a54:	00210133          	add	sp,sp,sp
    3a58:	e8813183          	ld	gp,-376(sp) # 0x40001e88
    3a5c:	c5930113          	addi	sp,t1,-935 # 0x3462c59
    3a60:	d377d137          	lui	sp,0xd377d
    3a64:	d57d2137          	lui	sp,0xd57d2
    3a68:	ba624693          	xori	a3,tp,-1114
    3a6c:	7a117813          	andi	a6,sp,1953
    3a70:	56041137          	lui	sp,0x56041
    3a74:	52416113          	ori	sp,sp,1316
    3a78:	8de16093          	ori	ra,sp,-1826
    3a7c:	d12fa137          	lui	sp,0xd12fa
    3a80:	3d73f393          	andi	t2,t2,983
    3a84:	569c30b7          	lui	ra,0x569c3
    3a88:	b5817113          	andi	sp,sp,-1192
    3a8c:	400022b7          	lui	t0,0x40002
    3a90:	005282b3          	add	t0,t0,t0
    3a94:	e902b303          	ld	t1,-368(t0) # 0x40001e90
    3a98:	7a510193          	addi	gp,sp,1957 # 0xffffffffd12fa7a5
    3a9c:	873930b7          	lui	ra,0x87393
    3aa0:	aee50193          	addi	gp,a0,-1298 # 0xffffffffccb82aee
    3aa4:	400020b7          	lui	ra,0x40002
    3aa8:	001080b3          	add	ra,ra,ra
    3aac:	e900b103          	ld	sp,-368(ra) # 0x40001e90
    3ab0:	00000513          	li	a0,0
    3ab4:	23300093          	li	ra,563
    3ab8:	23333137          	lui	sp,0x23333
    3abc:	00113023          	sd	ra,0(sp) # 0x23333000
    3ac0:	0005006b          	0x5006b
    3ac4:	00000093          	li	ra,0
    3ac8:	0000006f          	j	0x3ac8
    3acc:	ee42a137          	lui	sp,0xee42a
    3ad0:	7c799137          	lui	sp,0x7c799
    3ad4:	400023b7          	lui	t2,0x40002
    3ad8:	007383b3          	add	t2,t2,t2
    3adc:	e883b183          	ld	gp,-376(t2) # 0x40001e88
    3ae0:	580112b7          	lui	t0,0x58011
    3ae4:	40002337          	lui	t1,0x40002
    3ae8:	00630333          	add	t1,t1,t1
    3aec:	e8233823          	sd	sp,-368(t1) # 0x40001e90
    3af0:	40002237          	lui	tp,0x40002
    3af4:	00420233          	add	tp,tp,tp
    3af8:	e8223423          	sd	sp,-376(tp) # 0x40001e88
    3afc:	40002137          	lui	sp,0x40002
    3b00:	00210133          	add	sp,sp,sp
    3b04:	e8813083          	ld	ra,-376(sp) # 0x40001e88
    3b08:	ac100213          	li	tp,-1343
    3b0c:	40002137          	lui	sp,0x40002
    3b10:	00210133          	add	sp,sp,sp
    3b14:	e9013303          	ld	t1,-368(sp) # 0x40001e90
    3b18:	014131b7          	lui	gp,0x1413
    3b1c:	adda40b7          	lui	ra,0xadda4
    3b20:	09518113          	addi	sp,gp,149 # 0x1413095
    3b24:	ee6d91b7          	lui	gp,0xee6d9
    3b28:	e4db61b7          	lui	gp,0xe4db6
    3b2c:	062c5137          	lui	sp,0x62c5
    3b30:	ec60f013          	andi	zero,ra,-314
    3b34:	f4b0c093          	xori	ra,ra,-181
    3b38:	893c93b7          	lui	t2,0x893c9
    3b3c:	0371e213          	ori	tp,gp,55
    3b40:	edd38113          	addi	sp,t2,-291 # 0xffffffff893c8edd
    3b44:	f4018313          	addi	t1,gp,-192 # 0xffffffffe4db5f40
    3b48:	1be1e293          	ori	t0,gp,446
    3b4c:	02d18193          	addi	gp,gp,45
    3b50:	4f3790b7          	lui	ra,0x4f379
    3b54:	08258463          	beq	a1,sp,0x3bdc
    3b58:	084005ef          	jal	a1,0x3bdc
    3b5c:	faa4f093          	andi	ra,s1,-86
    3b60:	c0500113          	li	sp,-1019
    3b64:	0d30f093          	andi	ra,ra,211
    3b68:	89f10193          	addi	gp,sp,-1889 # 0x62c489f
    3b6c:	ad534193          	xori	gp,t1,-1323
    3b70:	c4a4f193          	andi	gp,s1,-950
    3b74:	400020b7          	lui	ra,0x40002
    3b78:	001080b3          	add	ra,ra,ra
    3b7c:	e880b083          	ld	ra,-376(ra) # 0x40001e88
    3b80:	6f008193          	addi	gp,ra,1776
    3b84:	4ece4137          	lui	sp,0x4ece4
    3b88:	a2ae51b7          	lui	gp,0xa2ae5
    3b8c:	ee440137          	lui	sp,0xee440
    3b90:	400020b7          	lui	ra,0x40002
    3b94:	001080b3          	add	ra,ra,ra
    3b98:	e830b823          	sd	gp,-368(ra) # 0x40001e90
    3b9c:	7fb3c137          	lui	sp,0x7fb3c
    3ba0:	93094193          	xori	gp,s2,-1744
    3ba4:	643590b7          	lui	ra,0x64359
    3ba8:	4d416093          	ori	ra,sp,1236
    3bac:	80518213          	addi	tp,gp,-2043 # 0xffffffffa2ae4805
    3bb0:	0dbbe0b7          	lui	ra,0xdbbe
    3bb4:	a1fcb5b7          	lui	a1,0xa1fcb
    3bb8:	0273e0b7          	lui	ra,0x273e
    3bbc:	2c01e113          	ori	sp,gp,704
    3bc0:	7a710113          	addi	sp,sp,1959 # 0x7fb3c7a7
    3bc4:	32514013          	xori	zero,sp,805
    3bc8:	13217313          	andi	t1,sp,306
    3bcc:	e10701b7          	lui	gp,0xe1070
    3bd0:	98a4e193          	ori	gp,s1,-1654
    3bd4:	00010193          	mv	gp,sp
    3bd8:	0a218663          	beq	gp,sp,0x3c84
    3bdc:	e6776db7          	lui	s11,0xe6776
    3be0:	b8b66093          	ori	ra,a2,-1141
    3be4:	d2a06313          	ori	t1,zero,-726
    3be8:	400020b7          	lui	ra,0x40002
    3bec:	001080b3          	add	ra,ra,ra
    3bf0:	e880b103          	ld	sp,-376(ra) # 0x40001e88
    3bf4:	ea6021b7          	lui	gp,0xea602
    3bf8:	377a7137          	lui	sp,0x377a7
    3bfc:	4a2b9237          	lui	tp,0x4a2b9
    3c00:	40002137          	lui	sp,0x40002
    3c04:	00210133          	add	sp,sp,sp
    3c08:	e8313823          	sd	gp,-368(sp) # 0x40001e90
    3c0c:	400021b7          	lui	gp,0x40002
    3c10:	003181b3          	add	gp,gp,gp
    3c14:	e881b083          	ld	ra,-376(gp) # 0x40001e88
    3c18:	a59860b7          	lui	ra,0xa5986
    3c1c:	400020b7          	lui	ra,0x40002
    3c20:	001080b3          	add	ra,ra,ra
    3c24:	e880b083          	ld	ra,-376(ra) # 0x40001e88
    3c28:	5aa1f093          	andi	ra,gp,1450
    3c2c:	cf37d137          	lui	sp,0xcf37d
    3c30:	13dc4437          	lui	s0,0x13dc4
    3c34:	74ece1b7          	lui	gp,0x74ece
    3c38:	98472037          	lui	zero,0x98472
    3c3c:	1007a137          	lui	sp,0x1007a
    3c40:	2c624213          	xori	tp,tp,710
    3c44:	ecc20193          	addi	gp,tp,-308 # 0x4a2b8ecc
    3c48:	6001e193          	ori	gp,gp,1536
    3c4c:	d32471b7          	lui	gp,0xd3247
    3c50:	30c1c013          	xori	zero,gp,780
    3c54:	9adf21b7          	lui	gp,0x9adf2
    3c58:	4d489137          	lui	sp,0x4d489
    3c5c:	4df5c293          	xori	t0,a1,1247
    3c60:	c9ff40b7          	lui	ra,0xc9ff4
    3c64:	2870e113          	ori	sp,ra,647
    3c68:	d250f093          	andi	ra,ra,-731
    3c6c:	88f48037          	lui	zero,0x88f48
    3c70:	99594093          	xori	ra,s2,-1643
    3c74:	a4794193          	xori	gp,s2,-1465
    3c78:	197fb337          	lui	t1,0x197fb
    3c7c:	00010213          	mv	tp,sp
    3c80:	dc2204e3          	beq	tp,sp,0x3a48
    3c84:	400021b7          	lui	gp,0x40002
    3c88:	003181b3          	add	gp,gp,gp
    3c8c:	e821b823          	sd	sp,-368(gp) # 0x40001e90
    3c90:	0a61f113          	andi	sp,gp,166
    3c94:	fe201137          	lui	sp,0xfe201
    3c98:	afb1e113          	ori	sp,gp,-1285
    3c9c:	40002337          	lui	t1,0x40002
    3ca0:	00630333          	add	t1,t1,t1
    3ca4:	e8833083          	ld	ra,-376(t1) # 0x40001e88
    3ca8:	784631b7          	lui	gp,0x78463
    3cac:	3b5a51b7          	lui	gp,0x3b5a5
    3cb0:	e2610213          	addi	tp,sp,-474 # 0xfffffffffe200e26
    3cb4:	f1ae20b7          	lui	ra,0xf1ae2
    3cb8:	c9c9d2b7          	lui	t0,0xc9c9d
    3cbc:	cdfa43b7          	lui	t2,0xcdfa4
    3cc0:	400020b7          	lui	ra,0x40002
    3cc4:	001080b3          	add	ra,ra,ra
    3cc8:	e880b103          	ld	sp,-376(ra) # 0x40001e88
    3ccc:	b230d1b7          	lui	gp,0xb230d
    3cd0:	9221c313          	xori	t1,gp,-1758
    3cd4:	b8f09337          	lui	t1,0xb8f09
    3cd8:	be508093          	addi	ra,ra,-1051
    3cdc:	632061b7          	lui	gp,0x63206
    3ce0:	d4d441b7          	lui	gp,0xd4d44
    3ce4:	97c27093          	andi	ra,tp,-1668
    3ce8:	59e17113          	andi	sp,sp,1438
    3cec:	7652a237          	lui	tp,0x7652a
    3cf0:	9e506793          	ori	a5,zero,-1563
    3cf4:	2e7291b7          	lui	gp,0x2e729
    3cf8:	416ff137          	lui	sp,0x416ff
    3cfc:	12608c63          	beq	ra,t1,0x3e34
    3d00:	134000ef          	jal	ra,0x3e34
    3d04:	44018113          	addi	sp,gp,1088 # 0x2e729440
    3d08:	40002137          	lui	sp,0x40002
    3d0c:	00210133          	add	sp,sp,sp
    3d10:	e8813083          	ld	ra,-376(sp) # 0x40001e88
    3d14:	8cee40b7          	lui	ra,0x8cee4
    3d18:	40002cb7          	lui	s9,0x40002
    3d1c:	019c8cb3          	add	s9,s9,s9
    3d20:	e83cb423          	sd	gp,-376(s9) # 0x40001e88
    3d24:	58d2b0b7          	lui	ra,0x58d2b
    3d28:	94ffa037          	lui	zero,0x94ffa
    3d2c:	0e134093          	xori	ra,t1,225
    3d30:	48a8d0b7          	lui	ra,0x48a8d
    3d34:	d0ed5037          	lui	zero,0xd0ed5
    3d38:	75c5e1b7          	lui	gp,0x75c5e
    3d3c:	53a640b7          	lui	ra,0x53a64
    3d40:	9ea10013          	addi	zero,sp,-1558
    3d44:	ce82c093          	xori	ra,t0,-792
    3d48:	31c980b7          	lui	ra,0x31c98
    3d4c:	be817193          	andi	gp,sp,-1048
    3d50:	337e91b7          	lui	gp,0x337e9
    3d54:	b5417137          	lui	sp,0xb5417
    3d58:	a9ec80b7          	lui	ra,0xa9ec8
    3d5c:	1d714113          	xori	sp,sp,471
    3d60:	9e916093          	ori	ra,sp,-1559
    3d64:	739befb7          	lui	t6,0x739be
    3d68:	e33e1137          	lui	sp,0xe33e1
    3d6c:	bd620013          	addi	zero,tp,-1066 # 0x76529bd6
    3d70:	abb6e693          	ori	a3,a3,-1349
    3d74:	5b81f093          	andi	ra,gp,1464
    3d78:	8780e313          	ori	t1,ra,-1928
    3d7c:	f1f9c093          	xori	ra,s3,-225
    3d80:	400021b7          	lui	gp,0x40002
    3d84:	003181b3          	add	gp,gp,gp
    3d88:	e881b103          	ld	sp,-376(gp) # 0x40001e88
    3d8c:	d31a5337          	lui	t1,0xd31a5
    3d90:	242ab037          	lui	zero,0x242ab
    3d94:	dc3004e3          	beq	zero,gp,0x3b5c
    3d98:	dc5ff16f          	jal	sp,0x3b5c
    3d9c:	8c767237          	lui	tp,0x8c767
    3da0:	ae21c893          	xori	a7,gp,-1310
    3da4:	c7224093          	xori	ra,tp,-910
    3da8:	400020b7          	lui	ra,0x40002
    3dac:	001080b3          	add	ra,ra,ra
    3db0:	e870b423          	sd	t2,-376(ra) # 0x40001e88
    3db4:	6268c1b7          	lui	gp,0x6268c
    3db8:	19648c93          	addi	s9,s1,406 # 0x46b8a196
    3dbc:	39ebe093          	ori	ra,s7,926
    3dc0:	7d5ba2b7          	lui	t0,0x7d5ba
    3dc4:	40002237          	lui	tp,0x40002
    3dc8:	00420233          	add	tp,tp,tp
    3dcc:	e8823083          	ld	ra,-376(tp) # 0x40001e88
    3dd0:	857890b7          	lui	ra,0x85789
    3dd4:	d1a14093          	xori	ra,sp,-742
    3dd8:	6ebec1b7          	lui	gp,0x6ebec
    3ddc:	5bd08193          	addi	gp,ra,1469 # 0xffffffff857895bd
    3de0:	f4e18113          	addi	sp,gp,-178 # 0x6ebebf4e
    3de4:	0bce2137          	lui	sp,0xbce2
    3de8:	400021b7          	lui	gp,0x40002
    3dec:	003181b3          	add	gp,gp,gp
    3df0:	e841b823          	sd	tp,-368(gp) # 0x40001e90
    3df4:	68731137          	lui	sp,0x68731
    3df8:	072d0137          	lui	sp,0x72d0
    3dfc:	9dd819b7          	lui	s3,0x9dd81
    3e00:	8f12c1b7          	lui	gp,0x8f12c
    3e04:	95ea2137          	lui	sp,0x95ea2
    3e08:	46ae31b7          	lui	gp,0x46ae3
    3e0c:	6215d1b7          	lui	gp,0x6215d
    3e10:	f31df493          	andi	s1,s11,-207
    3e14:	40002337          	lui	t1,0x40002
    3e18:	00630333          	add	t1,t1,t1
    3e1c:	e8233423          	sd	sp,-376(t1) # 0x40001e88
    3e20:	6792a137          	lui	sp,0x6792a
    3e24:	925be1b7          	lui	gp,0x925be
    3e28:	9580c193          	xori	gp,ra,-1704
    3e2c:	00000393          	li	t2,0
    3e30:	ae0388e3          	beqz	t2,0x3920
    3e34:	8d13c113          	xori	sp,t2,-1839
    3e38:	6ac320b7          	lui	ra,0x6ac32
    3e3c:	ee7821b7          	lui	gp,0xee782
    3e40:	01a0f393          	andi	t2,ra,26
    3e44:	41843037          	lui	zero,0x41843
    3e48:	63810013          	addi	zero,sp,1592 # 0x6792a638
    3e4c:	a0a16313          	ori	t1,sp,-1526
    3e50:	a89983b7          	lui	t2,0xa8998
    3e54:	6d185137          	lui	sp,0x6d185
    3e58:	3b724113          	xori	sp,tp,951
    3e5c:	7bfb9137          	lui	sp,0x7bfb9
    3e60:	6420f113          	andi	sp,ra,1602
    3e64:	ba218193          	addi	gp,gp,-1118 # 0xffffffffee781ba2
    3e68:	559ec1b7          	lui	gp,0x559ec
    3e6c:	57408093          	addi	ra,ra,1396 # 0x6ac32574
    3e70:	fd417313          	andi	t1,sp,-44
    3e74:	cc1d9137          	lui	sp,0xcc1d9
    3e78:	b2308ce3          	beq	ra,gp,0x39b0
    3e7c:	b35ff0ef          	jal	ra,0x39b0
    3e80:	deadbeef          	jal	t4,0xfffffffffffdf46a
    3e84:	deadbeef          	jal	t4,0xfffffffffffdf46e
    3e88:	deadbeef          	jal	t4,0xfffffffffffdf472
    3e8c:	deadbeef          	jal	t4,0xfffffffffffdf476
    3e90:	deadbeef          	jal	t4,0xfffffffffffdf47a
    3e94:	deadbeef          	jal	t4,0xfffffffffffdf47e
    3e98:	deadbeef          	jal	t4,0xfffffffffffdf482
    3e9c:	deadbeef          	jal	t4,0xfffffffffffdf486
    3ea0:	deadbeef          	jal	t4,0xfffffffffffdf48a
    3ea4:	deadbeef          	jal	t4,0xfffffffffffdf48e
    3ea8:	deadbeef          	jal	t4,0xfffffffffffdf492
    3eac:	deadbeef          	jal	t4,0xfffffffffffdf496
    3eb0:	deadbeef          	jal	t4,0xfffffffffffdf49a
    3eb4:	deadbeef          	jal	t4,0xfffffffffffdf49e
    3eb8:	deadbeef          	jal	t4,0xfffffffffffdf4a2
    3ebc:	deadbeef          	jal	t4,0xfffffffffffdf4a6
    3ec0:	deadbeef          	jal	t4,0xfffffffffffdf4aa
    3ec4:	deadbeef          	jal	t4,0xfffffffffffdf4ae
    3ec8:	deadbeef          	jal	t4,0xfffffffffffdf4b2
    3ecc:	deadbeef          	jal	t4,0xfffffffffffdf4b6
    3ed0:	deadbeef          	jal	t4,0xfffffffffffdf4ba
    3ed4:	deadbeef          	jal	t4,0xfffffffffffdf4be
    3ed8:	deadbeef          	jal	t4,0xfffffffffffdf4c2
    3edc:	deadbeef          	jal	t4,0xfffffffffffdf4c6
    3ee0:	deadbeef          	jal	t4,0xfffffffffffdf4ca
    3ee4:	deadbeef          	jal	t4,0xfffffffffffdf4ce
    3ee8:	deadbeef          	jal	t4,0xfffffffffffdf4d2
    3eec:	deadbeef          	jal	t4,0xfffffffffffdf4d6
    3ef0:	deadbeef          	jal	t4,0xfffffffffffdf4da
    3ef4:	deadbeef          	jal	t4,0xfffffffffffdf4de
    3ef8:	deadbeef          	jal	t4,0xfffffffffffdf4e2
    3efc:	deadbeef          	jal	t4,0xfffffffffffdf4e6
